	.file	"test-cc.cc"
	.text
.Ltext0:
	.section	.text._ZN5riscv10fenv_setrmEi,"axG",@progbits,_ZN5riscv10fenv_setrmEi,comdat
	.p2align 4
	.weak	_ZN5riscv10fenv_setrmEi
	.type	_ZN5riscv10fenv_setrmEi, @function
_ZN5riscv10fenv_setrmEi:
.LVL0:
.LFB535:
	.file 1 "/home/takeyama/rv8/src/asm/fpu.h"
	.loc 1 176 2 view -0
	.cfi_startproc
	.loc 1 176 2 is_stmt 0 view .LVU1
	endbr64
	.loc 1 189 3 is_stmt 1 view .LVU2
	cmpl	$7, %edi
	je	.L1
	.loc 1 190 3 view .LVU3
	cmpl	$4, %edi
	ja	.L1
	leaq	.L4(%rip), %rdx
	movl	%edi, %edi
	.loc 1 190 3 is_stmt 0 view .LVU4
	movslq	(%rdx,%rdi,4), %rax
	addq	%rdx, %rax
	notrack jmp	*%rax
	.section	.rodata._ZN5riscv10fenv_setrmEi,"aG",@progbits,_ZN5riscv10fenv_setrmEi,comdat
	.align 4
	.align 4
.L4:
	.long	.L3-.L4
	.long	.L7-.L4
	.long	.L6-.L4
	.long	.L5-.L4
	.long	.L3-.L4
	.section	.text._ZN5riscv10fenv_setrmEi,"axG",@progbits,_ZN5riscv10fenv_setrmEi,comdat
.L3:
	.loc 1 191 4 is_stmt 1 view .LVU5
	.loc 1 191 20 view .LVU6
	.loc 1 191 30 is_stmt 0 view .LVU7
	xorl	%edi, %edi
.LVL1:
	.loc 1 191 30 view .LVU8
	jmp	fesetround@PLT
.LVL2:
.L1:
	.loc 1 198 2 view .LVU9
	ret
.L5:
	.loc 1 194 4 is_stmt 1 view .LVU10
	.loc 1 194 20 view .LVU11
	.loc 1 194 30 is_stmt 0 view .LVU12
	movl	$2048, %edi
.LVL3:
	.loc 1 194 30 view .LVU13
	jmp	fesetround@PLT
.LVL4:
.L7:
	.loc 1 192 4 is_stmt 1 view .LVU14
	.loc 1 192 20 view .LVU15
	.loc 1 192 30 is_stmt 0 view .LVU16
	movl	$3072, %edi
	jmp	fesetround@PLT
.LVL5:
.L6:
	.loc 1 193 4 is_stmt 1 view .LVU17
	.loc 1 193 20 view .LVU18
	.loc 1 193 30 is_stmt 0 view .LVU19
	movl	$1024, %edi
	jmp	fesetround@PLT
.LVL6:
	.cfi_endproc
.LFE535:
	.size	_ZN5riscv10fenv_setrmEi, .-_ZN5riscv10fenv_setrmEi
	.text
	.p2align 4
	.globl	fmadd_s
	.type	fmadd_s, @function
fmadd_s:
.LVL7:
.LFB547:
	.file 2 "src/app/test-cc.cc"
	.loc 2 28 1 is_stmt 1 view -0
	.cfi_startproc
	.loc 2 28 1 is_stmt 0 view .LVU21
	endbr64
	.loc 2 29 2 is_stmt 1 view .LVU22
.LVL8:
	.loc 2 30 2 view .LVU23
	.loc 2 28 1 is_stmt 0 view .LVU24
	pushq	%rbp
	.cfi_def_cfa_offset 16
	.cfi_offset 6, -16
	.loc 2 30 12 view .LVU25
	xorl	%edi, %edi
	.loc 2 28 1 view .LVU26
	movq	%rsp, %rbp
	.cfi_def_cfa_register 6
	subq	$16, %rsp
	.loc 2 28 1 view .LVU27
	movss	%xmm0, -4(%rbp)
	movss	%xmm1, -8(%rbp)
	movss	%xmm2, -12(%rbp)
	.loc 2 30 12 view .LVU28
	call	_ZN5riscv10fenv_setrmEi
.LVL9:
	.loc 2 30 18 is_stmt 1 view .LVU29
	.loc 2 31 2 view .LVU30
	.loc 2 30 25 is_stmt 0 view .LVU31
	movss	-4(%rbp), %xmm0
	mulss	-8(%rbp), %xmm0
	.loc 2 30 20 view .LVU32
	addss	-12(%rbp), %xmm0
.LVL10:
	.loc 2 32 1 view .LVU33
	leave
	.cfi_def_cfa 7, 8
.LVL11:
	.loc 2 32 1 view .LVU34
	ret
	.cfi_endproc
.LFE547:
	.size	fmadd_s, .-fmadd_s
	.p2align 4
	.globl	fmsub_s
	.type	fmsub_s, @function
fmsub_s:
.LVL12:
.LFB548:
	.loc 2 35 1 is_stmt 1 view -0
	.cfi_startproc
	.loc 2 35 1 is_stmt 0 view .LVU36
	endbr64
	.loc 2 36 2 is_stmt 1 view .LVU37
.LVL13:
	.loc 2 37 2 view .LVU38
	.loc 2 35 1 is_stmt 0 view .LVU39
	pushq	%rbp
	.cfi_def_cfa_offset 16
	.cfi_offset 6, -16
	.loc 2 37 12 view .LVU40
	xorl	%edi, %edi
	.loc 2 35 1 view .LVU41
	movq	%rsp, %rbp
	.cfi_def_cfa_register 6
	subq	$16, %rsp
	.loc 2 35 1 view .LVU42
	movss	%xmm0, -4(%rbp)
	movss	%xmm1, -8(%rbp)
	movss	%xmm2, -12(%rbp)
	.loc 2 37 12 view .LVU43
	call	_ZN5riscv10fenv_setrmEi
.LVL14:
	.loc 2 37 18 is_stmt 1 view .LVU44
	.loc 2 38 2 view .LVU45
	.loc 2 37 25 is_stmt 0 view .LVU46
	movss	-4(%rbp), %xmm0
	mulss	-8(%rbp), %xmm0
	.loc 2 37 20 view .LVU47
	subss	-12(%rbp), %xmm0
.LVL15:
	.loc 2 39 1 view .LVU48
	leave
	.cfi_def_cfa 7, 8
.LVL16:
	.loc 2 39 1 view .LVU49
	ret
	.cfi_endproc
.LFE548:
	.size	fmsub_s, .-fmsub_s
	.p2align 4
	.globl	fnmsub_s
	.type	fnmsub_s, @function
fnmsub_s:
.LVL17:
.LFB549:
	.loc 2 42 1 is_stmt 1 view -0
	.cfi_startproc
	.loc 2 42 1 is_stmt 0 view .LVU51
	endbr64
	.loc 2 43 2 is_stmt 1 view .LVU52
.LVL18:
	.loc 2 44 2 view .LVU53
	.loc 2 42 1 is_stmt 0 view .LVU54
	pushq	%rbp
	.cfi_def_cfa_offset 16
	.cfi_offset 6, -16
	.loc 2 44 12 view .LVU55
	xorl	%edi, %edi
	.loc 2 42 1 view .LVU56
	movq	%rsp, %rbp
	.cfi_def_cfa_register 6
	subq	$16, %rsp
	.loc 2 42 1 view .LVU57
	movss	%xmm0, -4(%rbp)
	movss	%xmm1, -8(%rbp)
	movss	%xmm2, -12(%rbp)
	.loc 2 44 12 view .LVU58
	call	_ZN5riscv10fenv_setrmEi
.LVL19:
	.loc 2 44 18 is_stmt 1 view .LVU59
	.loc 2 45 2 view .LVU60
	.loc 2 44 25 is_stmt 0 view .LVU61
	movss	-8(%rbp), %xmm1
	mulss	-4(%rbp), %xmm1
	.loc 2 44 20 view .LVU62
	movss	-12(%rbp), %xmm0
	.loc 2 46 1 view .LVU63
	leave
	.cfi_def_cfa 7, 8
.LVL20:
	.loc 2 44 20 view .LVU64
	subss	%xmm1, %xmm0
.LVL21:
	.loc 2 46 1 view .LVU65
	ret
	.cfi_endproc
.LFE549:
	.size	fnmsub_s, .-fnmsub_s
	.p2align 4
	.globl	fnmadd_s
	.type	fnmadd_s, @function
fnmadd_s:
.LVL22:
.LFB550:
	.loc 2 49 1 is_stmt 1 view -0
	.cfi_startproc
	.loc 2 49 1 is_stmt 0 view .LVU67
	endbr64
	.loc 2 50 2 is_stmt 1 view .LVU68
.LVL23:
	.loc 2 51 2 view .LVU69
	.loc 2 49 1 is_stmt 0 view .LVU70
	pushq	%rbp
	.cfi_def_cfa_offset 16
	.cfi_offset 6, -16
	.loc 2 51 12 view .LVU71
	xorl	%edi, %edi
	.loc 2 49 1 view .LVU72
	movq	%rsp, %rbp
	.cfi_def_cfa_register 6
	subq	$16, %rsp
	.loc 2 49 1 view .LVU73
	movss	%xmm0, -4(%rbp)
	movss	%xmm1, -12(%rbp)
	movss	%xmm2, -8(%rbp)
	.loc 2 51 12 view .LVU74
	call	_ZN5riscv10fenv_setrmEi
.LVL24:
	.loc 2 51 18 is_stmt 1 view .LVU75
	.loc 2 52 2 view .LVU76
	.loc 2 51 27 is_stmt 0 view .LVU77
	movss	-12(%rbp), %xmm1
	.loc 2 51 25 view .LVU78
	movss	-4(%rbp), %xmm0
	.loc 2 51 27 view .LVU79
	xorps	.LC0(%rip), %xmm1
	.loc 2 51 25 view .LVU80
	mulss	%xmm1, %xmm0
	.loc 2 51 20 view .LVU81
	subss	-8(%rbp), %xmm0
	.loc 2 53 1 view .LVU82
	leave
	.cfi_def_cfa 7, 8
.LVL25:
	.loc 2 53 1 view .LVU83
	ret
	.cfi_endproc
.LFE550:
	.size	fnmadd_s, .-fnmadd_s
	.p2align 4
	.globl	fadd_s
	.type	fadd_s, @function
fadd_s:
.LVL26:
.LFB551:
	.loc 2 56 1 is_stmt 1 view -0
	.cfi_startproc
	.loc 2 56 1 is_stmt 0 view .LVU85
	endbr64
	.loc 2 57 2 is_stmt 1 view .LVU86
.LVL27:
	.loc 2 58 2 view .LVU87
	.loc 2 56 1 is_stmt 0 view .LVU88
	pushq	%rbp
	.cfi_def_cfa_offset 16
	.cfi_offset 6, -16
	.loc 2 58 12 view .LVU89
	xorl	%edi, %edi
	.loc 2 56 1 view .LVU90
	movq	%rsp, %rbp
	.cfi_def_cfa_register 6
	subq	$16, %rsp
	.loc 2 56 1 view .LVU91
	movss	%xmm0, -4(%rbp)
	movss	%xmm1, -8(%rbp)
	.loc 2 58 12 view .LVU92
	call	_ZN5riscv10fenv_setrmEi
.LVL28:
	.loc 2 58 18 is_stmt 1 view .LVU93
	.loc 2 59 2 view .LVU94
	.loc 2 58 20 is_stmt 0 view .LVU95
	movss	-4(%rbp), %xmm0
	addss	-8(%rbp), %xmm0
.LVL29:
	.loc 2 60 1 view .LVU96
	leave
	.cfi_def_cfa 7, 8
.LVL30:
	.loc 2 60 1 view .LVU97
	ret
	.cfi_endproc
.LFE551:
	.size	fadd_s, .-fadd_s
	.p2align 4
	.globl	fsub_s
	.type	fsub_s, @function
fsub_s:
.LVL31:
.LFB552:
	.loc 2 63 1 is_stmt 1 view -0
	.cfi_startproc
	.loc 2 63 1 is_stmt 0 view .LVU99
	endbr64
	.loc 2 64 2 is_stmt 1 view .LVU100
.LVL32:
	.loc 2 65 2 view .LVU101
	.loc 2 63 1 is_stmt 0 view .LVU102
	pushq	%rbp
	.cfi_def_cfa_offset 16
	.cfi_offset 6, -16
	.loc 2 65 12 view .LVU103
	xorl	%edi, %edi
	.loc 2 63 1 view .LVU104
	movq	%rsp, %rbp
	.cfi_def_cfa_register 6
	subq	$16, %rsp
	.loc 2 63 1 view .LVU105
	movss	%xmm0, -8(%rbp)
	movss	%xmm1, -4(%rbp)
	.loc 2 65 12 view .LVU106
	call	_ZN5riscv10fenv_setrmEi
.LVL33:
	.loc 2 65 18 is_stmt 1 view .LVU107
	.loc 2 66 2 view .LVU108
	.loc 2 65 20 is_stmt 0 view .LVU109
	movss	-8(%rbp), %xmm0
	subss	-4(%rbp), %xmm0
.LVL34:
	.loc 2 67 1 view .LVU110
	leave
	.cfi_def_cfa 7, 8
.LVL35:
	.loc 2 67 1 view .LVU111
	ret
	.cfi_endproc
.LFE552:
	.size	fsub_s, .-fsub_s
	.p2align 4
	.globl	fmul_s
	.type	fmul_s, @function
fmul_s:
.LVL36:
.LFB553:
	.loc 2 70 1 is_stmt 1 view -0
	.cfi_startproc
	.loc 2 70 1 is_stmt 0 view .LVU113
	endbr64
	.loc 2 71 2 is_stmt 1 view .LVU114
.LVL37:
	.loc 2 72 2 view .LVU115
	.loc 2 70 1 is_stmt 0 view .LVU116
	pushq	%rbp
	.cfi_def_cfa_offset 16
	.cfi_offset 6, -16
	.loc 2 72 12 view .LVU117
	xorl	%edi, %edi
	.loc 2 70 1 view .LVU118
	movq	%rsp, %rbp
	.cfi_def_cfa_register 6
	subq	$16, %rsp
	.loc 2 70 1 view .LVU119
	movss	%xmm0, -4(%rbp)
	movss	%xmm1, -8(%rbp)
	.loc 2 72 12 view .LVU120
	call	_ZN5riscv10fenv_setrmEi
.LVL38:
	.loc 2 72 18 is_stmt 1 view .LVU121
	.loc 2 73 2 view .LVU122
	.loc 2 72 20 is_stmt 0 view .LVU123
	movss	-4(%rbp), %xmm0
	mulss	-8(%rbp), %xmm0
.LVL39:
	.loc 2 74 1 view .LVU124
	leave
	.cfi_def_cfa 7, 8
.LVL40:
	.loc 2 74 1 view .LVU125
	ret
	.cfi_endproc
.LFE553:
	.size	fmul_s, .-fmul_s
	.p2align 4
	.globl	fdiv_s
	.type	fdiv_s, @function
fdiv_s:
.LVL41:
.LFB554:
	.loc 2 77 1 is_stmt 1 view -0
	.cfi_startproc
	.loc 2 77 1 is_stmt 0 view .LVU127
	endbr64
	.loc 2 78 2 is_stmt 1 view .LVU128
.LVL42:
	.loc 2 79 2 view .LVU129
	.loc 2 77 1 is_stmt 0 view .LVU130
	pushq	%rbp
	.cfi_def_cfa_offset 16
	.cfi_offset 6, -16
	.loc 2 79 12 view .LVU131
	xorl	%edi, %edi
	.loc 2 77 1 view .LVU132
	movq	%rsp, %rbp
	.cfi_def_cfa_register 6
	subq	$16, %rsp
	.loc 2 77 1 view .LVU133
	movss	%xmm0, -8(%rbp)
	movss	%xmm1, -4(%rbp)
	.loc 2 79 12 view .LVU134
	call	_ZN5riscv10fenv_setrmEi
.LVL43:
	.loc 2 79 18 is_stmt 1 view .LVU135
	.loc 2 80 2 view .LVU136
	.loc 2 79 20 is_stmt 0 view .LVU137
	movss	-8(%rbp), %xmm0
	divss	-4(%rbp), %xmm0
.LVL44:
	.loc 2 81 1 view .LVU138
	leave
	.cfi_def_cfa 7, 8
.LVL45:
	.loc 2 81 1 view .LVU139
	ret
	.cfi_endproc
.LFE554:
	.size	fdiv_s, .-fdiv_s
	.p2align 4
	.globl	fmin_s
	.type	fmin_s, @function
fmin_s:
.LVL46:
.LFB555:
	.loc 2 84 1 is_stmt 1 view -0
	.cfi_startproc
	.loc 2 84 1 is_stmt 0 view .LVU141
	endbr64
	.loc 2 85 2 is_stmt 1 view .LVU142
.LVL47:
	.loc 2 86 2 view .LVU143
	.loc 2 86 34 is_stmt 0 view .LVU144
	comiss	%xmm0, %xmm1
	ja	.L29
.LVL48:
	.file 3 "/usr/include/c++/9/cmath"
	.loc 3 612 5 is_stmt 1 view .LVU145
	.loc 2 86 16 is_stmt 0 view .LVU146
	ucomiss	%xmm1, %xmm1
	.loc 2 86 34 view .LVU147
	movd	%xmm0, %edx
	movd	%xmm1, %eax
	cmovp	%edx, %eax
	movd	%eax, %xmm0
.LVL49:
.L29:
	.loc 2 87 2 is_stmt 1 discriminator 6 view .LVU148
	.loc 2 88 1 is_stmt 0 discriminator 6 view .LVU149
	ret
	.cfi_endproc
.LFE555:
	.size	fmin_s, .-fmin_s
	.p2align 4
	.globl	fmax_s
	.type	fmax_s, @function
fmax_s:
.LVL50:
.LFB556:
	.loc 2 91 1 is_stmt 1 view -0
	.cfi_startproc
	.loc 2 91 1 is_stmt 0 view .LVU151
	endbr64
	.loc 2 92 2 is_stmt 1 view .LVU152
.LVL51:
	.loc 2 93 2 view .LVU153
	.loc 2 93 34 is_stmt 0 view .LVU154
	comiss	%xmm1, %xmm0
	ja	.L31
.LVL52:
	.loc 3 612 5 is_stmt 1 view .LVU155
	.loc 2 93 16 is_stmt 0 view .LVU156
	ucomiss	%xmm1, %xmm1
	.loc 2 93 34 view .LVU157
	movd	%xmm0, %edx
	movd	%xmm1, %eax
	cmovp	%edx, %eax
	movd	%eax, %xmm0
.LVL53:
.L31:
	.loc 2 94 2 is_stmt 1 discriminator 6 view .LVU158
	.loc 2 95 1 is_stmt 0 discriminator 6 view .LVU159
	ret
	.cfi_endproc
.LFE556:
	.size	fmax_s, .-fmax_s
	.p2align 4
	.globl	fsqrt_s
	.type	fsqrt_s, @function
fsqrt_s:
.LVL54:
.LFB557:
	.loc 2 98 1 is_stmt 1 view -0
	.cfi_startproc
	.loc 2 98 1 is_stmt 0 view .LVU161
	endbr64
	.loc 2 99 2 is_stmt 1 view .LVU162
.LVL55:
	.loc 2 100 2 view .LVU163
	.loc 2 98 1 is_stmt 0 view .LVU164
	pushq	%rbp
	.cfi_def_cfa_offset 16
	.cfi_offset 6, -16
	.loc 2 100 12 view .LVU165
	xorl	%edi, %edi
	.loc 2 98 1 view .LVU166
	movq	%rsp, %rbp
	.cfi_def_cfa_register 6
	subq	$16, %rsp
	.loc 2 98 1 view .LVU167
	movss	%xmm0, -4(%rbp)
	.loc 2 100 12 view .LVU168
	call	_ZN5riscv10fenv_setrmEi
.LVL56:
	.loc 2 100 18 is_stmt 1 view .LVU169
.LBB16410:
.LBI16410:
	.loc 1 310 13 view .LVU170
.LBE16410:
	.loc 1 310 31 view .LVU171
.LBB16415:
.LBB16411:
.LBI16411:
	.loc 3 463 3 view .LVU172
.LBB16412:
	.loc 3 464 5 view .LVU173
	.loc 3 464 27 is_stmt 0 view .LVU174
	movss	-4(%rbp), %xmm0
	pxor	%xmm2, %xmm2
	ucomiss	%xmm0, %xmm2
	movaps	%xmm0, %xmm1
	sqrtss	%xmm1, %xmm1
	ja	.L35
.LVL57:
.L32:
	.loc 3 464 27 view .LVU175
.LBE16412:
.LBE16411:
.LBE16415:
	.loc 2 102 1 view .LVU176
	leave
	.cfi_remember_state
	.cfi_def_cfa 7, 8
	movaps	%xmm1, %xmm0
	ret
.LVL58:
.L35:
	.cfi_restore_state
	.loc 2 102 1 view .LVU177
	movss	%xmm1, -4(%rbp)
.LVL59:
.LBB16416:
.LBB16414:
.LBB16413:
	.loc 3 464 27 view .LVU178
	call	sqrtf@PLT
.LVL60:
	.loc 3 464 27 view .LVU179
	movss	-4(%rbp), %xmm1
.LVL61:
	.loc 3 464 27 view .LVU180
.LBE16413:
.LBE16414:
.LBE16416:
	.loc 2 101 2 is_stmt 1 view .LVU181
	.loc 2 101 9 is_stmt 0 view .LVU182
	jmp	.L32
	.cfi_endproc
.LFE557:
	.size	fsqrt_s, .-fsqrt_s
	.p2align 4
	.globl	fle_s
	.type	fle_s, @function
fle_s:
.LVL62:
.LFB558:
	.loc 2 105 1 is_stmt 1 view -0
	.cfi_startproc
	.loc 2 105 1 is_stmt 0 view .LVU184
	endbr64
	.loc 2 106 2 is_stmt 1 view .LVU185
.LVL63:
	.loc 2 107 2 view .LVU186
	.loc 2 108 2 view .LVU187
	.loc 2 107 9 is_stmt 0 view .LVU188
	xorl	%eax, %eax
	comiss	%xmm0, %xmm1
	setnb	%al
	.loc 2 109 1 view .LVU189
	ret
	.cfi_endproc
.LFE558:
	.size	fle_s, .-fle_s
	.p2align 4
	.globl	flt_s
	.type	flt_s, @function
flt_s:
.LVL64:
.LFB559:
	.loc 2 112 1 is_stmt 1 view -0
	.cfi_startproc
	.loc 2 112 1 is_stmt 0 view .LVU191
	endbr64
	.loc 2 113 2 is_stmt 1 view .LVU192
.LVL65:
	.loc 2 114 2 view .LVU193
	.loc 2 115 2 view .LVU194
	.loc 2 114 9 is_stmt 0 view .LVU195
	xorl	%eax, %eax
	comiss	%xmm0, %xmm1
	seta	%al
	.loc 2 116 1 view .LVU196
	ret
	.cfi_endproc
.LFE559:
	.size	flt_s, .-flt_s
	.p2align 4
	.globl	feq_s
	.type	feq_s, @function
feq_s:
.LVL66:
.LFB560:
	.loc 2 119 1 is_stmt 1 view -0
	.cfi_startproc
	.loc 2 119 1 is_stmt 0 view .LVU198
	endbr64
	.loc 2 120 2 is_stmt 1 view .LVU199
.LVL67:
	.loc 2 121 2 view .LVU200
	.loc 2 122 2 view .LVU201
	.loc 2 121 9 is_stmt 0 view .LVU202
	xorl	%eax, %eax
	ucomiss	%xmm1, %xmm0
	movl	$0, %edx
	setnp	%al
	cmovne	%rdx, %rax
	.loc 2 123 1 view .LVU203
	ret
	.cfi_endproc
.LFE560:
	.size	feq_s, .-feq_s
	.p2align 4
	.globl	fcvt_w_s
	.type	fcvt_w_s, @function
fcvt_w_s:
.LVL68:
.LFB561:
	.loc 2 126 1 is_stmt 1 view -0
	.cfi_startproc
	.loc 2 126 1 is_stmt 0 view .LVU205
	endbr64
	.loc 2 127 2 is_stmt 1 view .LVU206
.LVL69:
	.loc 2 128 2 view .LVU207
	.loc 2 126 1 is_stmt 0 view .LVU208
	pushq	%rbp
	.cfi_def_cfa_offset 16
	.cfi_offset 6, -16
	.loc 2 128 12 view .LVU209
	xorl	%edi, %edi
	.loc 2 126 1 view .LVU210
	movq	%rsp, %rbp
	.cfi_def_cfa_register 6
	subq	$16, %rsp
	.loc 2 126 1 view .LVU211
	movss	%xmm0, -4(%rbp)
	.loc 2 128 12 view .LVU212
	call	_ZN5riscv10fenv_setrmEi
.LVL70:
	.loc 2 128 18 is_stmt 1 view .LVU213
.LBB16417:
.LBI16417:
	.loc 1 203 13 view .LVU214
.LBB16418:
	.loc 1 205 50 is_stmt 0 view .LVU215
	movss	-4(%rbp), %xmm0
	comiss	.LC2(%rip), %xmm0
	cvttss2sil	%xmm0, %eax
.LVL71:
.LBB16419:
.LBI16419:
	.loc 3 611 3 is_stmt 1 view .LVU216
.LBB16420:
	.loc 3 612 5 view .LVU217
	.loc 3 612 5 is_stmt 0 view .LVU218
.LBE16420:
.LBE16419:
	.loc 1 205 50 view .LVU219
	seta	%cl
	movl	%eax, %edx
	shrl	$31, %edx
	.loc 1 206 4 view .LVU220
	testb	%dl, %cl
	jne	.L41
	ucomiss	%xmm0, %xmm0
	jp	.L41
.LBE16418:
.LBE16417:
	.loc 2 130 1 view .LVU221
	leave
	.cfi_remember_state
	.cfi_def_cfa 7, 8
.LVL72:
	.loc 2 130 1 view .LVU222
	ret
	.p2align 4,,10
	.p2align 3
.L41:
	.cfi_restore_state
	leave
	.cfi_def_cfa 7, 8
.LBB16422:
.LBB16421:
	.loc 1 206 4 view .LVU223
	movl	$2147483647, %eax
.LVL73:
	.loc 1 206 4 view .LVU224
.LBE16421:
.LBE16422:
	.loc 2 129 2 is_stmt 1 view .LVU225
	.loc 2 130 1 is_stmt 0 view .LVU226
	ret
	.cfi_endproc
.LFE561:
	.size	fcvt_w_s, .-fcvt_w_s
	.p2align 4
	.globl	fcvt_wu_s
	.type	fcvt_wu_s, @function
fcvt_wu_s:
.LVL74:
.LFB562:
	.loc 2 133 1 is_stmt 1 view -0
	.cfi_startproc
	.loc 2 133 1 is_stmt 0 view .LVU228
	endbr64
	.loc 2 134 2 is_stmt 1 view .LVU229
.LVL75:
	.loc 2 135 2 view .LVU230
	.loc 2 133 1 is_stmt 0 view .LVU231
	pushq	%rbp
	.cfi_def_cfa_offset 16
	.cfi_offset 6, -16
	.loc 2 135 12 view .LVU232
	xorl	%edi, %edi
	.loc 2 133 1 view .LVU233
	movq	%rsp, %rbp
	.cfi_def_cfa_register 6
	subq	$16, %rsp
	.loc 2 133 1 view .LVU234
	movss	%xmm0, -4(%rbp)
	.loc 2 135 12 view .LVU235
	call	_ZN5riscv10fenv_setrmEi
.LVL76:
	.loc 2 135 18 is_stmt 1 view .LVU236
.LBB16435:
.LBI16435:
	.loc 1 213 13 view .LVU237
.LBB16436:
.LBB16437:
.LBI16437:
	.loc 3 611 3 view .LVU238
.LBB16438:
	.loc 3 612 5 view .LVU239
	.loc 3 612 5 is_stmt 0 view .LVU240
.LBE16438:
.LBE16437:
.LBB16439:
.LBI16439:
	.loc 3 584 3 is_stmt 1 view .LVU241
.LBB16440:
	.loc 3 585 5 view .LVU242
	.loc 3 585 27 is_stmt 0 view .LVU243
	movss	-4(%rbp), %xmm0
	movaps	%xmm0, %xmm1
	andps	.LC3(%rip), %xmm1
	.loc 3 585 31 view .LVU244
	ucomiss	.LC4(%rip), %xmm1
.LBE16440:
.LBE16439:
	.loc 1 215 31 view .LVU245
	pxor	%xmm1, %xmm1
.LBB16442:
.LBB16441:
	.loc 3 585 31 view .LVU246
	seta	%dl
.LBE16441:
.LBE16442:
	.loc 1 215 31 view .LVU247
	comiss	%xmm1, %xmm0
	setnb	%al
	.loc 1 216 4 view .LVU248
	testb	%al, %dl
	jne	.L49
	ucomiss	%xmm0, %xmm0
	jp	.L49
	comiss	%xmm1, %xmm0
	jb	.L52
.LBE16436:
.LBE16435:
	.loc 2 137 1 view .LVU249
	leave
	.cfi_remember_state
	.cfi_def_cfa 7, 8
.LVL77:
.LBB16451:
.LBB16447:
	.loc 1 216 4 view .LVU250
	cvttss2siq	%xmm0, %rax
.LBE16447:
.LBE16451:
	.loc 2 137 1 view .LVU251
	ret
	.p2align 4,,10
	.p2align 3
.L52:
	.cfi_restore_state
.LVL78:
.LBB16452:
.LBB16448:
.LBB16443:
.LBI16443:
	.loc 1 213 13 is_stmt 1 view .LVU252
.LBB16444:
	.loc 1 216 4 is_stmt 0 view .LVU253
	comiss	.LC5(%rip), %xmm0
	movl	_ZL4fcsr(%rip), %eax
	jbe	.L53
	.loc 1 220 12 view .LVU254
	orl	$1, %eax
	movl	%eax, _ZL4fcsr(%rip)
	xorl	%eax, %eax
.LBE16444:
.LBE16443:
.LBE16448:
.LBE16452:
	.loc 2 137 1 view .LVU255
	leave
	.cfi_remember_state
	.cfi_def_cfa 7, 8
	ret
	.p2align 4,,10
	.p2align 3
.L53:
	.cfi_restore_state
.LBB16453:
.LBB16449:
.LBB16446:
.LBB16445:
	.loc 1 221 12 view .LVU256
	orl	$16, %eax
	movl	%eax, _ZL4fcsr(%rip)
	.loc 1 216 4 view .LVU257
	xorl	%eax, %eax
.LBE16445:
.LBE16446:
.LBE16449:
.LBE16453:
	.loc 2 137 1 view .LVU258
	leave
	.cfi_remember_state
	.cfi_def_cfa 7, 8
	ret
.LVL79:
	.p2align 4,,10
	.p2align 3
.L49:
	.cfi_restore_state
	.loc 2 137 1 view .LVU259
	leave
	.cfi_def_cfa 7, 8
.LBB16454:
.LBB16450:
	movl	$-1, %eax
.LVL80:
	.loc 2 137 1 view .LVU260
.LBE16450:
.LBE16454:
	.loc 2 136 2 is_stmt 1 view .LVU261
	.loc 2 137 1 is_stmt 0 view .LVU262
	ret
	.cfi_endproc
.LFE562:
	.size	fcvt_wu_s, .-fcvt_wu_s
	.p2align 4
	.globl	fcvt_s_w
	.type	fcvt_s_w, @function
fcvt_s_w:
.LVL81:
.LFB563:
	.loc 2 140 1 is_stmt 1 view -0
	.cfi_startproc
	.loc 2 140 1 is_stmt 0 view .LVU264
	endbr64
	.loc 2 141 2 is_stmt 1 view .LVU265
.LVL82:
	.loc 2 142 2 view .LVU266
	.loc 2 140 1 is_stmt 0 view .LVU267
	pushq	%rbp
	.cfi_def_cfa_offset 16
	.cfi_offset 6, -16
	movq	%rsp, %rbp
	.cfi_def_cfa_register 6
	pushq	%rbx
	.cfi_offset 3, -24
	movl	%edi, %ebx
	.loc 2 142 12 view .LVU268
	xorl	%edi, %edi
.LVL83:
	.loc 2 140 1 view .LVU269
	subq	$8, %rsp
	.loc 2 142 12 view .LVU270
	call	_ZN5riscv10fenv_setrmEi
.LVL84:
	.loc 2 142 18 is_stmt 1 view .LVU271
	.loc 2 143 2 view .LVU272
	.loc 2 144 1 is_stmt 0 view .LVU273
	addq	$8, %rsp
	.loc 2 142 20 view .LVU274
	pxor	%xmm0, %xmm0
	cvtsi2ssl	%ebx, %xmm0
	.loc 2 144 1 view .LVU275
	popq	%rbx
.LVL85:
	.loc 2 144 1 view .LVU276
	popq	%rbp
	.cfi_def_cfa 7, 8
	ret
	.cfi_endproc
.LFE563:
	.size	fcvt_s_w, .-fcvt_s_w
	.p2align 4
	.globl	fcvt_s_wu
	.type	fcvt_s_wu, @function
fcvt_s_wu:
.LVL86:
.LFB564:
	.loc 2 147 1 is_stmt 1 view -0
	.cfi_startproc
	.loc 2 147 1 is_stmt 0 view .LVU278
	endbr64
	.loc 2 148 2 is_stmt 1 view .LVU279
.LVL87:
	.loc 2 149 2 view .LVU280
	.loc 2 147 1 is_stmt 0 view .LVU281
	pushq	%rbp
	.cfi_def_cfa_offset 16
	.cfi_offset 6, -16
	movq	%rsp, %rbp
	.cfi_def_cfa_register 6
	pushq	%rbx
	.cfi_offset 3, -24
	movl	%edi, %ebx
	.loc 2 149 12 view .LVU282
	xorl	%edi, %edi
.LVL88:
	.loc 2 147 1 view .LVU283
	subq	$8, %rsp
	.loc 2 149 12 view .LVU284
	call	_ZN5riscv10fenv_setrmEi
.LVL89:
	.loc 2 149 18 is_stmt 1 view .LVU285
	.loc 2 150 2 view .LVU286
	.loc 2 151 1 is_stmt 0 view .LVU287
	addq	$8, %rsp
	.loc 2 149 20 view .LVU288
	pxor	%xmm0, %xmm0
	cvtsi2ssq	%rbx, %xmm0
	.loc 2 151 1 view .LVU289
	popq	%rbx
.LVL90:
	.loc 2 151 1 view .LVU290
	popq	%rbp
	.cfi_def_cfa 7, 8
	ret
	.cfi_endproc
.LFE564:
	.size	fcvt_s_wu, .-fcvt_s_wu
	.p2align 4
	.globl	fmv_x_s
	.type	fmv_x_s, @function
fmv_x_s:
.LVL91:
.LFB565:
	.loc 2 154 1 is_stmt 1 view -0
	.cfi_startproc
	.loc 2 154 1 is_stmt 0 view .LVU292
	endbr64
	.loc 2 155 2 is_stmt 1 view .LVU293
.LVL92:
	.loc 2 156 2 view .LVU294
	.loc 3 612 5 view .LVU295
	.loc 2 156 4 is_stmt 0 view .LVU296
	ucomiss	%xmm0, %xmm0
	jp	.L63
	.loc 2 156 4 discriminator 2 view .LVU297
	cvttss2siq	%xmm0, %rax
	ret
	.p2align 4,,10
	.p2align 3
.L63:
	.loc 2 156 4 view .LVU298
	movl	$2143289344, %eax
.LVL93:
	.loc 2 157 2 is_stmt 1 view .LVU299
	.loc 2 158 1 is_stmt 0 view .LVU300
	ret
	.cfi_endproc
.LFE565:
	.size	fmv_x_s, .-fmv_x_s
	.p2align 4
	.globl	fclass_s
	.type	fclass_s, @function
fclass_s:
.LVL94:
.LFB566:
	.loc 2 161 1 is_stmt 1 view -0
	.cfi_startproc
	.loc 2 161 1 is_stmt 0 view .LVU302
	endbr64
	.loc 2 162 2 is_stmt 1 view .LVU303
.LVL95:
	.loc 2 163 2 view .LVU304
.LBB16459:
.LBI16459:
	.loc 1 331 13 view .LVU305
.LBE16459:
	.loc 1 331 35 view .LVU306
.LBB16464:
.LBB16460:
.LBI16460:
	.loc 1 316 13 view .LVU307
.LBB16461:
	.loc 1 319 25 is_stmt 0 view .LVU308
	movd	%xmm0, %edx
	movd	%xmm0, %esi
	.loc 1 319 66 view .LVU309
	movd	%xmm0, %ecx
	.loc 1 319 25 view .LVU310
	shrl	$31, %edx
.LVL96:
	.loc 1 318 25 view .LVU311
	movd	%xmm0, %eax
.LVL97:
	.loc 1 318 25 view .LVU312
	shrl	$23, %esi
.LVL98:
	.loc 1 319 66 view .LVU313
	andl	$8388607, %ecx
.LVL99:
	.loc 1 321 4 view .LVU314
	testl	$2139095040, %eax
	jne	.L65
	cmpl	$1, %edx
	sbbq	%rax, %rax
.LVL100:
	.loc 1 321 4 view .LVU315
	testl	%ecx, %ecx
	jne	.L66
	andl	$8, %eax
	addq	$8, %rax
	ret
	.p2align 4,,10
	.p2align 3
.L66:
	andl	$28, %eax
	addq	$4, %rax
	ret
.LVL101:
	.p2align 4,,10
	.p2align 3
.L65:
	.loc 1 321 4 view .LVU316
	cmpb	$-1, %sil
	je	.L75
	cmpl	$1, %edx
	sbbq	%rax, %rax
.LVL102:
	.loc 1 321 4 view .LVU317
	andl	$62, %eax
	addq	$2, %rax
.LBE16461:
.LBE16460:
.LBE16464:
	.loc 2 165 1 view .LVU318
	ret
.LVL103:
	.p2align 4,,10
	.p2align 3
.L75:
.LBB16465:
.LBB16463:
.LBB16462:
	.loc 1 321 4 view .LVU319
	testl	%ecx, %ecx
	jne	.L69
	cmpl	$1, %edx
	sbbq	%rax, %rax
.LVL104:
	.loc 1 321 4 view .LVU320
	andl	$127, %eax
	addq	$1, %rax
	ret
.LVL105:
	.p2align 4,,10
	.p2align 3
.L69:
	.loc 1 321 4 view .LVU321
	andl	$1, %eax
.LVL106:
	.loc 1 321 4 view .LVU322
	cmpl	$1, %eax
	sbbq	%rax, %rax
	andl	$256, %eax
	addq	$256, %rax
	ret
.LBE16462:
.LBE16463:
.LBE16465:
	.cfi_endproc
.LFE566:
	.size	fclass_s, .-fclass_s
	.p2align 4
	.globl	fmv_s_x
	.type	fmv_s_x, @function
fmv_s_x:
.LVL107:
.LFB567:
	.loc 2 168 1 is_stmt 1 view -0
	.cfi_startproc
	.loc 2 168 1 is_stmt 0 view .LVU324
	endbr64
	.loc 2 169 2 is_stmt 1 view .LVU325
.LVL108:
	.loc 2 170 2 view .LVU326
	.loc 2 171 2 view .LVU327
	.loc 2 170 4 is_stmt 0 view .LVU328
	movl	%edi, %edi
.LVL109:
	.loc 2 170 4 view .LVU329
	pxor	%xmm0, %xmm0
	cvtsi2ssq	%rdi, %xmm0
	.loc 2 172 1 view .LVU330
	ret
	.cfi_endproc
.LFE567:
	.size	fmv_s_x, .-fmv_s_x
	.p2align 4
	.globl	fmadd_d
	.type	fmadd_d, @function
fmadd_d:
.LVL110:
.LFB568:
	.loc 2 211 1 is_stmt 1 view -0
	.cfi_startproc
	.loc 2 211 1 is_stmt 0 view .LVU332
	endbr64
	.loc 2 212 2 is_stmt 1 view .LVU333
.LVL111:
	.loc 2 213 2 view .LVU334
	.loc 2 211 1 is_stmt 0 view .LVU335
	pushq	%rbp
	.cfi_def_cfa_offset 16
	.cfi_offset 6, -16
	.loc 2 213 12 view .LVU336
	xorl	%edi, %edi
	.loc 2 211 1 view .LVU337
	movq	%rsp, %rbp
	.cfi_def_cfa_register 6
	subq	$32, %rsp
	.loc 2 211 1 view .LVU338
	movsd	%xmm0, -8(%rbp)
	movsd	%xmm1, -16(%rbp)
	movsd	%xmm2, -24(%rbp)
	.loc 2 213 12 view .LVU339
	call	_ZN5riscv10fenv_setrmEi
.LVL112:
	.loc 2 213 18 is_stmt 1 view .LVU340
	.loc 2 214 2 view .LVU341
	.loc 2 213 25 is_stmt 0 view .LVU342
	movsd	-8(%rbp), %xmm0
	mulsd	-16(%rbp), %xmm0
	.loc 2 213 20 view .LVU343
	addsd	-24(%rbp), %xmm0
.LVL113:
	.loc 2 215 1 view .LVU344
	leave
	.cfi_def_cfa 7, 8
.LVL114:
	.loc 2 215 1 view .LVU345
	ret
	.cfi_endproc
.LFE568:
	.size	fmadd_d, .-fmadd_d
	.p2align 4
	.globl	fmsub_d
	.type	fmsub_d, @function
fmsub_d:
.LVL115:
.LFB569:
	.loc 2 218 1 is_stmt 1 view -0
	.cfi_startproc
	.loc 2 218 1 is_stmt 0 view .LVU347
	endbr64
	.loc 2 219 2 is_stmt 1 view .LVU348
.LVL116:
	.loc 2 220 2 view .LVU349
	.loc 2 218 1 is_stmt 0 view .LVU350
	pushq	%rbp
	.cfi_def_cfa_offset 16
	.cfi_offset 6, -16
	.loc 2 220 12 view .LVU351
	xorl	%edi, %edi
	.loc 2 218 1 view .LVU352
	movq	%rsp, %rbp
	.cfi_def_cfa_register 6
	subq	$32, %rsp
	.loc 2 218 1 view .LVU353
	movsd	%xmm0, -8(%rbp)
	movsd	%xmm1, -16(%rbp)
	movsd	%xmm2, -24(%rbp)
	.loc 2 220 12 view .LVU354
	call	_ZN5riscv10fenv_setrmEi
.LVL117:
	.loc 2 220 18 is_stmt 1 view .LVU355
	.loc 2 221 2 view .LVU356
	.loc 2 220 25 is_stmt 0 view .LVU357
	movsd	-8(%rbp), %xmm0
	mulsd	-16(%rbp), %xmm0
	.loc 2 220 20 view .LVU358
	subsd	-24(%rbp), %xmm0
.LVL118:
	.loc 2 222 1 view .LVU359
	leave
	.cfi_def_cfa 7, 8
.LVL119:
	.loc 2 222 1 view .LVU360
	ret
	.cfi_endproc
.LFE569:
	.size	fmsub_d, .-fmsub_d
	.p2align 4
	.globl	fnmsub_d
	.type	fnmsub_d, @function
fnmsub_d:
.LVL120:
.LFB570:
	.loc 2 225 1 is_stmt 1 view -0
	.cfi_startproc
	.loc 2 225 1 is_stmt 0 view .LVU362
	endbr64
	.loc 2 226 2 is_stmt 1 view .LVU363
.LVL121:
	.loc 2 227 2 view .LVU364
	.loc 2 225 1 is_stmt 0 view .LVU365
	pushq	%rbp
	.cfi_def_cfa_offset 16
	.cfi_offset 6, -16
	.loc 2 227 12 view .LVU366
	xorl	%edi, %edi
	.loc 2 225 1 view .LVU367
	movq	%rsp, %rbp
	.cfi_def_cfa_register 6
	subq	$32, %rsp
	.loc 2 225 1 view .LVU368
	movsd	%xmm0, -8(%rbp)
	movsd	%xmm1, -16(%rbp)
	movsd	%xmm2, -24(%rbp)
	.loc 2 227 12 view .LVU369
	call	_ZN5riscv10fenv_setrmEi
.LVL122:
	.loc 2 227 18 is_stmt 1 view .LVU370
	.loc 2 228 2 view .LVU371
	.loc 2 227 25 is_stmt 0 view .LVU372
	movsd	-16(%rbp), %xmm1
	mulsd	-8(%rbp), %xmm1
	.loc 2 227 20 view .LVU373
	movsd	-24(%rbp), %xmm0
	.loc 2 229 1 view .LVU374
	leave
	.cfi_def_cfa 7, 8
.LVL123:
	.loc 2 227 20 view .LVU375
	subsd	%xmm1, %xmm0
.LVL124:
	.loc 2 229 1 view .LVU376
	ret
	.cfi_endproc
.LFE570:
	.size	fnmsub_d, .-fnmsub_d
	.p2align 4
	.globl	fnmadd_d
	.type	fnmadd_d, @function
fnmadd_d:
.LVL125:
.LFB571:
	.loc 2 232 1 is_stmt 1 view -0
	.cfi_startproc
	.loc 2 232 1 is_stmt 0 view .LVU378
	endbr64
	.loc 2 233 2 is_stmt 1 view .LVU379
.LVL126:
	.loc 2 234 2 view .LVU380
	.loc 2 232 1 is_stmt 0 view .LVU381
	pushq	%rbp
	.cfi_def_cfa_offset 16
	.cfi_offset 6, -16
	.loc 2 234 12 view .LVU382
	xorl	%edi, %edi
	.loc 2 232 1 view .LVU383
	movq	%rsp, %rbp
	.cfi_def_cfa_register 6
	pushq	%rbx
	.cfi_offset 3, -24
	movq	%xmm1, %rbx
	subq	$24, %rsp
	.loc 2 232 1 view .LVU384
	movsd	%xmm0, -24(%rbp)
	movsd	%xmm2, -32(%rbp)
	.loc 2 234 12 view .LVU385
	call	_ZN5riscv10fenv_setrmEi
.LVL127:
	.loc 2 234 18 is_stmt 1 view .LVU386
	.loc 2 235 2 view .LVU387
	.loc 2 234 25 is_stmt 0 view .LVU388
	movsd	-24(%rbp), %xmm0
	.loc 2 234 27 view .LVU389
	movq	%rbx, %xmm3
	xorpd	.LC6(%rip), %xmm3
	.loc 2 234 25 view .LVU390
	mulsd	%xmm3, %xmm0
	.loc 2 234 20 view .LVU391
	subsd	-32(%rbp), %xmm0
	.loc 2 236 1 view .LVU392
	addq	$24, %rsp
	popq	%rbx
.LVL128:
	.loc 2 236 1 view .LVU393
	popq	%rbp
	.cfi_def_cfa 7, 8
.LVL129:
	.loc 2 236 1 view .LVU394
	ret
	.cfi_endproc
.LFE571:
	.size	fnmadd_d, .-fnmadd_d
	.p2align 4
	.globl	fadd_d
	.type	fadd_d, @function
fadd_d:
.LVL130:
.LFB572:
	.loc 2 239 1 is_stmt 1 view -0
	.cfi_startproc
	.loc 2 239 1 is_stmt 0 view .LVU396
	endbr64
	.loc 2 240 2 is_stmt 1 view .LVU397
.LVL131:
	.loc 2 241 2 view .LVU398
	.loc 2 239 1 is_stmt 0 view .LVU399
	pushq	%rbp
	.cfi_def_cfa_offset 16
	.cfi_offset 6, -16
	.loc 2 241 12 view .LVU400
	xorl	%edi, %edi
	.loc 2 239 1 view .LVU401
	movq	%rsp, %rbp
	.cfi_def_cfa_register 6
	subq	$16, %rsp
	.loc 2 239 1 view .LVU402
	movsd	%xmm0, -8(%rbp)
	movsd	%xmm1, -16(%rbp)
	.loc 2 241 12 view .LVU403
	call	_ZN5riscv10fenv_setrmEi
.LVL132:
	.loc 2 241 18 is_stmt 1 view .LVU404
	.loc 2 242 2 view .LVU405
	.loc 2 241 20 is_stmt 0 view .LVU406
	movsd	-8(%rbp), %xmm0
	addsd	-16(%rbp), %xmm0
.LVL133:
	.loc 2 243 1 view .LVU407
	leave
	.cfi_def_cfa 7, 8
.LVL134:
	.loc 2 243 1 view .LVU408
	ret
	.cfi_endproc
.LFE572:
	.size	fadd_d, .-fadd_d
	.p2align 4
	.globl	fsub_d
	.type	fsub_d, @function
fsub_d:
.LVL135:
.LFB573:
	.loc 2 246 1 is_stmt 1 view -0
	.cfi_startproc
	.loc 2 246 1 is_stmt 0 view .LVU410
	endbr64
	.loc 2 247 2 is_stmt 1 view .LVU411
.LVL136:
	.loc 2 248 2 view .LVU412
	.loc 2 246 1 is_stmt 0 view .LVU413
	pushq	%rbp
	.cfi_def_cfa_offset 16
	.cfi_offset 6, -16
	.loc 2 248 12 view .LVU414
	xorl	%edi, %edi
	.loc 2 246 1 view .LVU415
	movq	%rsp, %rbp
	.cfi_def_cfa_register 6
	subq	$16, %rsp
	.loc 2 246 1 view .LVU416
	movsd	%xmm0, -16(%rbp)
	movsd	%xmm1, -8(%rbp)
	.loc 2 248 12 view .LVU417
	call	_ZN5riscv10fenv_setrmEi
.LVL137:
	.loc 2 248 18 is_stmt 1 view .LVU418
	.loc 2 249 2 view .LVU419
	.loc 2 248 20 is_stmt 0 view .LVU420
	movsd	-16(%rbp), %xmm0
	subsd	-8(%rbp), %xmm0
.LVL138:
	.loc 2 250 1 view .LVU421
	leave
	.cfi_def_cfa 7, 8
.LVL139:
	.loc 2 250 1 view .LVU422
	ret
	.cfi_endproc
.LFE573:
	.size	fsub_d, .-fsub_d
	.p2align 4
	.globl	fmul_d
	.type	fmul_d, @function
fmul_d:
.LVL140:
.LFB574:
	.loc 2 253 1 is_stmt 1 view -0
	.cfi_startproc
	.loc 2 253 1 is_stmt 0 view .LVU424
	endbr64
	.loc 2 254 2 is_stmt 1 view .LVU425
.LVL141:
	.loc 2 255 2 view .LVU426
	.loc 2 253 1 is_stmt 0 view .LVU427
	pushq	%rbp
	.cfi_def_cfa_offset 16
	.cfi_offset 6, -16
	.loc 2 255 12 view .LVU428
	xorl	%edi, %edi
	.loc 2 253 1 view .LVU429
	movq	%rsp, %rbp
	.cfi_def_cfa_register 6
	subq	$16, %rsp
	.loc 2 253 1 view .LVU430
	movsd	%xmm0, -8(%rbp)
	movsd	%xmm1, -16(%rbp)
	.loc 2 255 12 view .LVU431
	call	_ZN5riscv10fenv_setrmEi
.LVL142:
	.loc 2 255 18 is_stmt 1 view .LVU432
	.loc 2 256 2 view .LVU433
	.loc 2 255 20 is_stmt 0 view .LVU434
	movsd	-8(%rbp), %xmm0
	mulsd	-16(%rbp), %xmm0
.LVL143:
	.loc 2 257 1 view .LVU435
	leave
	.cfi_def_cfa 7, 8
.LVL144:
	.loc 2 257 1 view .LVU436
	ret
	.cfi_endproc
.LFE574:
	.size	fmul_d, .-fmul_d
	.p2align 4
	.globl	fdiv_d
	.type	fdiv_d, @function
fdiv_d:
.LVL145:
.LFB575:
	.loc 2 260 1 is_stmt 1 view -0
	.cfi_startproc
	.loc 2 260 1 is_stmt 0 view .LVU438
	endbr64
	.loc 2 261 2 is_stmt 1 view .LVU439
.LVL146:
	.loc 2 262 2 view .LVU440
	.loc 2 260 1 is_stmt 0 view .LVU441
	pushq	%rbp
	.cfi_def_cfa_offset 16
	.cfi_offset 6, -16
	.loc 2 262 12 view .LVU442
	xorl	%edi, %edi
	.loc 2 260 1 view .LVU443
	movq	%rsp, %rbp
	.cfi_def_cfa_register 6
	subq	$16, %rsp
	.loc 2 260 1 view .LVU444
	movsd	%xmm0, -16(%rbp)
	movsd	%xmm1, -8(%rbp)
	.loc 2 262 12 view .LVU445
	call	_ZN5riscv10fenv_setrmEi
.LVL147:
	.loc 2 262 18 is_stmt 1 view .LVU446
	.loc 2 263 2 view .LVU447
	.loc 2 262 20 is_stmt 0 view .LVU448
	movsd	-16(%rbp), %xmm0
	divsd	-8(%rbp), %xmm0
.LVL148:
	.loc 2 264 1 view .LVU449
	leave
	.cfi_def_cfa 7, 8
.LVL149:
	.loc 2 264 1 view .LVU450
	ret
	.cfi_endproc
.LFE575:
	.size	fdiv_d, .-fdiv_d
	.p2align 4
	.globl	fmin_d
	.type	fmin_d, @function
fmin_d:
.LVL150:
.LFB576:
	.loc 2 267 1 is_stmt 1 view -0
	.cfi_startproc
	.loc 2 267 1 is_stmt 0 view .LVU452
	endbr64
	.loc 2 268 2 is_stmt 1 view .LVU453
.LVL151:
	.loc 2 269 2 view .LVU454
	.loc 2 269 34 is_stmt 0 view .LVU455
	comisd	%xmm0, %xmm1
	ja	.L96
.LVL152:
	.loc 3 620 5 is_stmt 1 view .LVU456
	.loc 2 269 16 is_stmt 0 view .LVU457
	ucomisd	%xmm1, %xmm1
	.loc 2 269 34 view .LVU458
	movq	%xmm0, %rdx
	movq	%xmm1, %rax
	cmovp	%rdx, %rax
	movq	%rax, %xmm0
.LVL153:
.L96:
	.loc 2 270 2 is_stmt 1 discriminator 6 view .LVU459
	.loc 2 271 1 is_stmt 0 discriminator 6 view .LVU460
	ret
	.cfi_endproc
.LFE576:
	.size	fmin_d, .-fmin_d
	.p2align 4
	.globl	fmax_d
	.type	fmax_d, @function
fmax_d:
.LVL154:
.LFB577:
	.loc 2 274 1 is_stmt 1 view -0
	.cfi_startproc
	.loc 2 274 1 is_stmt 0 view .LVU462
	endbr64
	.loc 2 275 2 is_stmt 1 view .LVU463
.LVL155:
	.loc 2 276 2 view .LVU464
	.loc 2 276 34 is_stmt 0 view .LVU465
	comisd	%xmm1, %xmm0
	ja	.L98
.LVL156:
	.loc 3 620 5 is_stmt 1 view .LVU466
	.loc 2 276 16 is_stmt 0 view .LVU467
	ucomisd	%xmm1, %xmm1
	.loc 2 276 34 view .LVU468
	movq	%xmm0, %rdx
	movq	%xmm1, %rax
	cmovp	%rdx, %rax
	movq	%rax, %xmm0
.LVL157:
.L98:
	.loc 2 277 2 is_stmt 1 discriminator 6 view .LVU469
	.loc 2 278 1 is_stmt 0 discriminator 6 view .LVU470
	ret
	.cfi_endproc
.LFE577:
	.size	fmax_d, .-fmax_d
	.p2align 4
	.globl	fcvt_s_d
	.type	fcvt_s_d, @function
fcvt_s_d:
.LVL158:
.LFB578:
	.loc 2 281 1 is_stmt 1 view -0
	.cfi_startproc
	.loc 2 281 1 is_stmt 0 view .LVU472
	endbr64
	.loc 2 282 2 is_stmt 1 view .LVU473
.LVL159:
	.loc 2 283 2 view .LVU474
	.loc 2 281 1 is_stmt 0 view .LVU475
	pushq	%rbp
	.cfi_def_cfa_offset 16
	.cfi_offset 6, -16
	.loc 2 283 12 view .LVU476
	xorl	%edi, %edi
	.loc 2 281 1 view .LVU477
	movq	%rsp, %rbp
	.cfi_def_cfa_register 6
	subq	$16, %rsp
	.loc 2 281 1 view .LVU478
	movsd	%xmm0, -8(%rbp)
	.loc 2 283 12 view .LVU479
	call	_ZN5riscv10fenv_setrmEi
.LVL160:
	.loc 2 283 18 is_stmt 1 view .LVU480
	.loc 2 284 2 view .LVU481
	.loc 2 283 20 is_stmt 0 view .LVU482
	movsd	-8(%rbp), %xmm0
	.loc 2 285 1 view .LVU483
	leave
	.cfi_def_cfa 7, 8
.LVL161:
	.loc 2 283 20 view .LVU484
	cvtsd2ss	%xmm0, %xmm0
.LVL162:
	.loc 2 285 1 view .LVU485
	ret
	.cfi_endproc
.LFE578:
	.size	fcvt_s_d, .-fcvt_s_d
	.p2align 4
	.globl	fcvt_d_s
	.type	fcvt_d_s, @function
fcvt_d_s:
.LVL163:
.LFB579:
	.loc 2 288 1 is_stmt 1 view -0
	.cfi_startproc
	.loc 2 288 1 is_stmt 0 view .LVU487
	endbr64
	.loc 2 289 2 is_stmt 1 view .LVU488
.LVL164:
	.loc 2 290 2 view .LVU489
	.loc 2 288 1 is_stmt 0 view .LVU490
	pushq	%rbp
	.cfi_def_cfa_offset 16
	.cfi_offset 6, -16
	.loc 2 290 12 view .LVU491
	xorl	%edi, %edi
	.loc 2 288 1 view .LVU492
	movq	%rsp, %rbp
	.cfi_def_cfa_register 6
	subq	$16, %rsp
	.loc 2 288 1 view .LVU493
	movss	%xmm0, -4(%rbp)
	.loc 2 290 12 view .LVU494
	call	_ZN5riscv10fenv_setrmEi
.LVL165:
	.loc 2 290 18 is_stmt 1 view .LVU495
	.loc 2 291 2 view .LVU496
	.loc 2 290 20 is_stmt 0 view .LVU497
	movss	-4(%rbp), %xmm0
	.loc 2 292 1 view .LVU498
	leave
	.cfi_def_cfa 7, 8
.LVL166:
	.loc 2 290 20 view .LVU499
	cvtss2sd	%xmm0, %xmm0
.LVL167:
	.loc 2 292 1 view .LVU500
	ret
	.cfi_endproc
.LFE579:
	.size	fcvt_d_s, .-fcvt_d_s
	.p2align 4
	.globl	fsqrt_d
	.type	fsqrt_d, @function
fsqrt_d:
.LVL168:
.LFB580:
	.loc 2 295 1 is_stmt 1 view -0
	.cfi_startproc
	.loc 2 295 1 is_stmt 0 view .LVU502
	endbr64
	.loc 2 296 2 is_stmt 1 view .LVU503
.LVL169:
	.loc 2 297 2 view .LVU504
	.loc 2 295 1 is_stmt 0 view .LVU505
	pushq	%rbp
	.cfi_def_cfa_offset 16
	.cfi_offset 6, -16
	.loc 2 297 12 view .LVU506
	xorl	%edi, %edi
	.loc 2 295 1 view .LVU507
	movq	%rsp, %rbp
	.cfi_def_cfa_register 6
	subq	$16, %rsp
	.loc 2 295 1 view .LVU508
	movsd	%xmm0, -8(%rbp)
	.loc 2 297 12 view .LVU509
	call	_ZN5riscv10fenv_setrmEi
.LVL170:
	.loc 2 297 18 is_stmt 1 view .LVU510
.LBB16466:
.LBI16466:
	.loc 1 311 13 view .LVU511
.LBB16467:
	.loc 1 311 31 view .LVU512
	.loc 1 311 47 is_stmt 0 view .LVU513
	movsd	-8(%rbp), %xmm0
	pxor	%xmm2, %xmm2
	ucomisd	%xmm0, %xmm2
	movapd	%xmm0, %xmm1
	sqrtsd	%xmm1, %xmm1
	ja	.L106
.LVL171:
.L103:
	.loc 1 311 47 view .LVU514
.LBE16467:
.LBE16466:
	.loc 2 299 1 view .LVU515
	leave
	.cfi_remember_state
	.cfi_def_cfa 7, 8
	movapd	%xmm1, %xmm0
	ret
.LVL172:
.L106:
	.cfi_restore_state
	.loc 2 299 1 view .LVU516
	movsd	%xmm1, -8(%rbp)
.LVL173:
.LBB16469:
.LBB16468:
	.loc 1 311 47 view .LVU517
	call	sqrt@PLT
.LVL174:
	.loc 1 311 47 view .LVU518
	movsd	-8(%rbp), %xmm1
.LVL175:
	.loc 1 311 47 view .LVU519
.LBE16468:
.LBE16469:
	.loc 2 298 2 is_stmt 1 view .LVU520
	.loc 2 298 9 is_stmt 0 view .LVU521
	jmp	.L103
	.cfi_endproc
.LFE580:
	.size	fsqrt_d, .-fsqrt_d
	.p2align 4
	.globl	fle_d
	.type	fle_d, @function
fle_d:
.LVL176:
.LFB581:
	.loc 2 302 1 is_stmt 1 view -0
	.cfi_startproc
	.loc 2 302 1 is_stmt 0 view .LVU523
	endbr64
	.loc 2 303 2 is_stmt 1 view .LVU524
.LVL177:
	.loc 2 304 2 view .LVU525
	.loc 2 305 2 view .LVU526
	.loc 2 304 9 is_stmt 0 view .LVU527
	xorl	%eax, %eax
	comisd	%xmm0, %xmm1
	setnb	%al
	.loc 2 306 1 view .LVU528
	ret
	.cfi_endproc
.LFE581:
	.size	fle_d, .-fle_d
	.p2align 4
	.globl	flt_d
	.type	flt_d, @function
flt_d:
.LVL178:
.LFB582:
	.loc 2 309 1 is_stmt 1 view -0
	.cfi_startproc
	.loc 2 309 1 is_stmt 0 view .LVU530
	endbr64
	.loc 2 310 2 is_stmt 1 view .LVU531
.LVL179:
	.loc 2 311 2 view .LVU532
	.loc 2 312 2 view .LVU533
	.loc 2 311 9 is_stmt 0 view .LVU534
	xorl	%eax, %eax
	comisd	%xmm0, %xmm1
	seta	%al
	.loc 2 313 1 view .LVU535
	ret
	.cfi_endproc
.LFE582:
	.size	flt_d, .-flt_d
	.p2align 4
	.globl	feq_d
	.type	feq_d, @function
feq_d:
.LVL180:
.LFB583:
	.loc 2 316 1 is_stmt 1 view -0
	.cfi_startproc
	.loc 2 316 1 is_stmt 0 view .LVU537
	endbr64
	.loc 2 317 2 is_stmt 1 view .LVU538
.LVL181:
	.loc 2 318 2 view .LVU539
	.loc 2 319 2 view .LVU540
	.loc 2 318 9 is_stmt 0 view .LVU541
	xorl	%eax, %eax
	ucomisd	%xmm1, %xmm0
	movl	$0, %edx
	setnp	%al
	cmovne	%rdx, %rax
	.loc 2 320 1 view .LVU542
	ret
	.cfi_endproc
.LFE583:
	.size	feq_d, .-feq_d
	.p2align 4
	.globl	fcvt_w_d
	.type	fcvt_w_d, @function
fcvt_w_d:
.LVL182:
.LFB584:
	.loc 2 323 1 is_stmt 1 view -0
	.cfi_startproc
	.loc 2 323 1 is_stmt 0 view .LVU544
	endbr64
	.loc 2 324 2 is_stmt 1 view .LVU545
.LVL183:
	.loc 2 325 2 view .LVU546
	.loc 2 323 1 is_stmt 0 view .LVU547
	pushq	%rbp
	.cfi_def_cfa_offset 16
	.cfi_offset 6, -16
	.loc 2 325 12 view .LVU548
	xorl	%edi, %edi
	.loc 2 323 1 view .LVU549
	movq	%rsp, %rbp
	.cfi_def_cfa_register 6
	subq	$16, %rsp
	.loc 2 323 1 view .LVU550
	movsd	%xmm0, -8(%rbp)
	.loc 2 325 12 view .LVU551
	call	_ZN5riscv10fenv_setrmEi
.LVL184:
	.loc 2 325 18 is_stmt 1 view .LVU552
.LBB16470:
.LBI16470:
	.loc 1 203 13 view .LVU553
.LBB16471:
	.loc 1 205 50 is_stmt 0 view .LVU554
	movsd	-8(%rbp), %xmm0
	comisd	.LC8(%rip), %xmm0
	cvttsd2sil	%xmm0, %eax
.LVL185:
.LBB16472:
.LBI16472:
	.loc 3 619 3 is_stmt 1 view .LVU555
.LBB16473:
	.loc 3 620 5 view .LVU556
	.loc 3 620 5 is_stmt 0 view .LVU557
.LBE16473:
.LBE16472:
	.loc 1 205 50 view .LVU558
	seta	%cl
	movl	%eax, %edx
	shrl	$31, %edx
	.loc 1 206 4 view .LVU559
	testb	%dl, %cl
	jne	.L112
	ucomisd	%xmm0, %xmm0
	jp	.L112
.LBE16471:
.LBE16470:
	.loc 2 327 1 view .LVU560
	leave
	.cfi_remember_state
	.cfi_def_cfa 7, 8
.LVL186:
	.loc 2 327 1 view .LVU561
	ret
	.p2align 4,,10
	.p2align 3
.L112:
	.cfi_restore_state
	leave
	.cfi_def_cfa 7, 8
.LBB16475:
.LBB16474:
	.loc 1 206 4 view .LVU562
	movl	$2147483647, %eax
.LVL187:
	.loc 1 206 4 view .LVU563
.LBE16474:
.LBE16475:
	.loc 2 326 2 is_stmt 1 view .LVU564
	.loc 2 327 1 is_stmt 0 view .LVU565
	ret
	.cfi_endproc
.LFE584:
	.size	fcvt_w_d, .-fcvt_w_d
	.p2align 4
	.globl	fcvt_wu_d
	.type	fcvt_wu_d, @function
fcvt_wu_d:
.LVL188:
.LFB585:
	.loc 2 330 1 is_stmt 1 view -0
	.cfi_startproc
	.loc 2 330 1 is_stmt 0 view .LVU567
	endbr64
	.loc 2 331 2 is_stmt 1 view .LVU568
.LVL189:
	.loc 2 332 2 view .LVU569
	.loc 2 330 1 is_stmt 0 view .LVU570
	pushq	%rbp
	.cfi_def_cfa_offset 16
	.cfi_offset 6, -16
	.loc 2 332 12 view .LVU571
	xorl	%edi, %edi
	.loc 2 330 1 view .LVU572
	movq	%rsp, %rbp
	.cfi_def_cfa_register 6
	subq	$16, %rsp
	.loc 2 330 1 view .LVU573
	movsd	%xmm0, -8(%rbp)
	.loc 2 332 12 view .LVU574
	call	_ZN5riscv10fenv_setrmEi
.LVL190:
	.loc 2 332 18 is_stmt 1 view .LVU575
.LBB16488:
.LBI16488:
	.loc 1 213 13 view .LVU576
.LBB16489:
.LBB16490:
.LBI16490:
	.loc 3 619 3 view .LVU577
.LBB16491:
	.loc 3 620 5 view .LVU578
	.loc 3 620 5 is_stmt 0 view .LVU579
.LBE16491:
.LBE16490:
.LBB16492:
.LBI16492:
	.loc 3 592 3 is_stmt 1 view .LVU580
.LBB16493:
	.loc 3 593 5 view .LVU581
	.loc 3 593 27 is_stmt 0 view .LVU582
	movsd	-8(%rbp), %xmm0
	movapd	%xmm0, %xmm1
	andpd	.LC9(%rip), %xmm1
	.loc 3 593 31 view .LVU583
	ucomisd	.LC10(%rip), %xmm1
.LBE16493:
.LBE16492:
	.loc 1 215 31 view .LVU584
	pxor	%xmm1, %xmm1
.LBB16495:
.LBB16494:
	.loc 3 593 31 view .LVU585
	seta	%dl
.LBE16494:
.LBE16495:
	.loc 1 215 31 view .LVU586
	comisd	%xmm1, %xmm0
	setnb	%al
	.loc 1 216 4 view .LVU587
	testb	%al, %dl
	jne	.L120
	ucomisd	%xmm0, %xmm0
	jp	.L120
	comisd	%xmm1, %xmm0
	jb	.L123
.LBE16489:
.LBE16488:
	.loc 2 334 1 view .LVU588
	leave
	.cfi_remember_state
	.cfi_def_cfa 7, 8
.LVL191:
.LBB16504:
.LBB16500:
	.loc 1 216 4 view .LVU589
	cvttsd2siq	%xmm0, %rax
.LBE16500:
.LBE16504:
	.loc 2 334 1 view .LVU590
	ret
	.p2align 4,,10
	.p2align 3
.L123:
	.cfi_restore_state
.LVL192:
.LBB16505:
.LBB16501:
.LBB16496:
.LBI16496:
	.loc 1 213 13 is_stmt 1 view .LVU591
.LBB16497:
	.loc 1 216 4 is_stmt 0 view .LVU592
	comisd	.LC11(%rip), %xmm0
	movl	_ZL4fcsr(%rip), %eax
	jbe	.L124
	.loc 1 220 12 view .LVU593
	orl	$1, %eax
	movl	%eax, _ZL4fcsr(%rip)
	xorl	%eax, %eax
.LBE16497:
.LBE16496:
.LBE16501:
.LBE16505:
	.loc 2 334 1 view .LVU594
	leave
	.cfi_remember_state
	.cfi_def_cfa 7, 8
	ret
	.p2align 4,,10
	.p2align 3
.L124:
	.cfi_restore_state
.LBB16506:
.LBB16502:
.LBB16499:
.LBB16498:
	.loc 1 221 12 view .LVU595
	orl	$16, %eax
	movl	%eax, _ZL4fcsr(%rip)
	.loc 1 216 4 view .LVU596
	xorl	%eax, %eax
.LBE16498:
.LBE16499:
.LBE16502:
.LBE16506:
	.loc 2 334 1 view .LVU597
	leave
	.cfi_remember_state
	.cfi_def_cfa 7, 8
	ret
.LVL193:
	.p2align 4,,10
	.p2align 3
.L120:
	.cfi_restore_state
	.loc 2 334 1 view .LVU598
	leave
	.cfi_def_cfa 7, 8
.LBB16507:
.LBB16503:
	movl	$-1, %eax
.LVL194:
	.loc 2 334 1 view .LVU599
.LBE16503:
.LBE16507:
	.loc 2 333 2 is_stmt 1 view .LVU600
	.loc 2 334 1 is_stmt 0 view .LVU601
	ret
	.cfi_endproc
.LFE585:
	.size	fcvt_wu_d, .-fcvt_wu_d
	.p2align 4
	.globl	fcvt_d_w
	.type	fcvt_d_w, @function
fcvt_d_w:
.LVL195:
.LFB586:
	.loc 2 337 1 is_stmt 1 view -0
	.cfi_startproc
	.loc 2 337 1 is_stmt 0 view .LVU603
	endbr64
	.loc 2 338 2 is_stmt 1 view .LVU604
.LVL196:
	.loc 2 339 2 view .LVU605
	.loc 2 337 1 is_stmt 0 view .LVU606
	pushq	%rbp
	.cfi_def_cfa_offset 16
	.cfi_offset 6, -16
	movq	%rsp, %rbp
	.cfi_def_cfa_register 6
	pushq	%rbx
	.cfi_offset 3, -24
	movl	%edi, %ebx
	.loc 2 339 12 view .LVU607
	xorl	%edi, %edi
.LVL197:
	.loc 2 337 1 view .LVU608
	subq	$8, %rsp
	.loc 2 339 12 view .LVU609
	call	_ZN5riscv10fenv_setrmEi
.LVL198:
	.loc 2 339 18 is_stmt 1 view .LVU610
	.loc 2 340 2 view .LVU611
	.loc 2 341 1 is_stmt 0 view .LVU612
	addq	$8, %rsp
	.loc 2 339 20 view .LVU613
	pxor	%xmm0, %xmm0
	cvtsi2sdl	%ebx, %xmm0
	.loc 2 341 1 view .LVU614
	popq	%rbx
.LVL199:
	.loc 2 341 1 view .LVU615
	popq	%rbp
	.cfi_def_cfa 7, 8
	ret
	.cfi_endproc
.LFE586:
	.size	fcvt_d_w, .-fcvt_d_w
	.p2align 4
	.globl	fcvt_d_wu
	.type	fcvt_d_wu, @function
fcvt_d_wu:
.LVL200:
.LFB587:
	.loc 2 344 1 is_stmt 1 view -0
	.cfi_startproc
	.loc 2 344 1 is_stmt 0 view .LVU617
	endbr64
	.loc 2 345 2 is_stmt 1 view .LVU618
.LVL201:
	.loc 2 346 2 view .LVU619
	.loc 2 344 1 is_stmt 0 view .LVU620
	pushq	%rbp
	.cfi_def_cfa_offset 16
	.cfi_offset 6, -16
	movq	%rsp, %rbp
	.cfi_def_cfa_register 6
	pushq	%rbx
	.cfi_offset 3, -24
	movl	%edi, %ebx
	.loc 2 346 12 view .LVU621
	xorl	%edi, %edi
.LVL202:
	.loc 2 344 1 view .LVU622
	subq	$8, %rsp
	.loc 2 346 12 view .LVU623
	call	_ZN5riscv10fenv_setrmEi
.LVL203:
	.loc 2 346 18 is_stmt 1 view .LVU624
	.loc 2 347 2 view .LVU625
	.loc 2 348 1 is_stmt 0 view .LVU626
	addq	$8, %rsp
	.loc 2 346 20 view .LVU627
	pxor	%xmm0, %xmm0
	cvtsi2sdq	%rbx, %xmm0
	.loc 2 348 1 view .LVU628
	popq	%rbx
.LVL204:
	.loc 2 348 1 view .LVU629
	popq	%rbp
	.cfi_def_cfa 7, 8
	ret
	.cfi_endproc
.LFE587:
	.size	fcvt_d_wu, .-fcvt_d_wu
	.p2align 4
	.globl	fclass_d
	.type	fclass_d, @function
fclass_d:
.LVL205:
.LFB588:
	.loc 2 351 1 is_stmt 1 view -0
	.cfi_startproc
	.loc 2 351 1 is_stmt 0 view .LVU631
	endbr64
	.loc 2 352 2 is_stmt 1 view .LVU632
.LVL206:
	.loc 2 353 2 view .LVU633
.LBB16512:
.LBI16512:
	.loc 1 332 13 view .LVU634
.LBE16512:
	.loc 1 332 35 view .LVU635
.LBB16517:
.LBB16513:
.LBI16513:
	.loc 1 316 13 view .LVU636
.LBB16514:
	.loc 1 319 51 is_stmt 0 view .LVU637
	movq	%xmm0, %rdx
	.loc 1 318 25 view .LVU638
	movq	%xmm0, %rax
.LVL207:
	.loc 1 319 25 view .LVU639
	movq	%xmm0, %rsi
	.loc 1 319 66 view .LVU640
	movabsq	$4503599627370495, %rcx
	.loc 1 319 51 view .LVU641
	shrq	$52, %rdx
	.loc 1 319 25 view .LVU642
	shrq	$63, %rsi
.LVL208:
	.loc 1 319 66 view .LVU643
	andq	%rax, %rcx
.LVL209:
	.loc 1 321 4 view .LVU644
	andl	$2047, %edx
.LVL210:
	.loc 1 321 4 view .LVU645
	jne	.L133
	cmpq	$1, %rsi
	sbbq	%rax, %rax
	testq	%rcx, %rcx
	jne	.L134
	andl	$8, %eax
	addq	$8, %rax
	ret
	.p2align 4,,10
	.p2align 3
.L134:
	andl	$28, %eax
	addq	$4, %rax
	ret
.LVL211:
	.p2align 4,,10
	.p2align 3
.L133:
	.loc 1 321 4 view .LVU646
	cmpq	$2047, %rdx
	je	.L143
	cmpq	$1, %rsi
	sbbq	%rax, %rax
.LVL212:
	.loc 1 321 4 view .LVU647
	andl	$62, %eax
	addq	$2, %rax
.LBE16514:
.LBE16513:
.LBE16517:
	.loc 2 355 1 view .LVU648
	ret
.LVL213:
	.p2align 4,,10
	.p2align 3
.L143:
.LBB16518:
.LBB16516:
.LBB16515:
	.loc 1 321 4 view .LVU649
	testq	%rcx, %rcx
	jne	.L137
	cmpq	$1, %rsi
	sbbq	%rax, %rax
.LVL214:
	.loc 1 321 4 view .LVU650
	andl	$127, %eax
	addq	$1, %rax
	ret
.LVL215:
	.p2align 4,,10
	.p2align 3
.L137:
	.loc 1 321 4 view .LVU651
	andl	$1, %eax
.LVL216:
	.loc 1 321 4 view .LVU652
	cmpq	$1, %rax
	sbbq	%rax, %rax
	andl	$256, %eax
	addq	$256, %rax
	ret
.LBE16515:
.LBE16516:
.LBE16518:
	.cfi_endproc
.LFE588:
	.size	fclass_d, .-fclass_d
	.section	.rodata.str1.1,"aMS",@progbits,1
.LC13:
	.string	"d=%.9e\n"
	.text
	.p2align 4
	.globl	_Z14test_fmadd_s_1v
	.type	_Z14test_fmadd_s_1v, @function
_Z14test_fmadd_s_1v:
.LFB589:
	.loc 2 412 1 is_stmt 1 view -0
	.cfi_startproc
	endbr64
	.loc 2 413 2 view .LVU654
.LVL217:
	.loc 2 414 2 view .LVU655
	.loc 2 415 2 view .LVU656
	.loc 2 416 2 view .LVU657
.LBB16523:
.LBI16523:
	.loc 2 27 16 view .LVU658
.LBB16524:
	.loc 2 29 2 view .LVU659
	.loc 2 30 2 view .LVU660
.LBE16524:
.LBE16523:
	.loc 2 412 1 is_stmt 0 view .LVU661
	pushq	%rbp
	.cfi_def_cfa_offset 16
	.cfi_offset 6, -16
.LBB16527:
.LBB16525:
	.loc 2 30 12 view .LVU662
	xorl	%edi, %edi
.LBE16525:
.LBE16527:
	.loc 2 412 1 view .LVU663
	movq	%rsp, %rbp
	.cfi_def_cfa_register 6
.LBB16528:
.LBB16526:
	.loc 2 30 12 view .LVU664
	call	_ZN5riscv10fenv_setrmEi
.LVL218:
	.loc 2 30 18 is_stmt 1 view .LVU665
	.loc 2 31 2 view .LVU666
	.loc 2 31 2 is_stmt 0 view .LVU667
.LBE16526:
.LBE16528:
	.loc 2 417 2 is_stmt 1 view .LVU668
.LBB16529:
.LBI16529:
	.file 4 "/usr/include/x86_64-linux-gnu/bits/stdio2.h"
	.loc 4 105 1 view .LVU669
.LBB16530:
	.loc 4 107 3 view .LVU670
	.loc 4 107 23 is_stmt 0 view .LVU671
	movl	$1, %edi
	movl	$1, %eax
.LBE16530:
.LBE16529:
	.loc 2 418 1 view .LVU672
	popq	%rbp
	.cfi_def_cfa 7, 8
.LBB16532:
.LBB16531:
	.loc 4 107 23 view .LVU673
	movsd	.LC12(%rip), %xmm0
	leaq	.LC13(%rip), %rsi
	jmp	__printf_chk@PLT
.LVL219:
.LBE16531:
.LBE16532:
	.cfi_endproc
.LFE589:
	.size	_Z14test_fmadd_s_1v, .-_Z14test_fmadd_s_1v
	.p2align 4
	.globl	_Z14test_fmadd_s_2v
	.type	_Z14test_fmadd_s_2v, @function
_Z14test_fmadd_s_2v:
.LFB590:
	.loc 2 421 1 is_stmt 1 view -0
	.cfi_startproc
	endbr64
	.loc 2 422 2 view .LVU675
.LVL220:
	.loc 2 423 2 view .LVU676
	.loc 2 424 2 view .LVU677
	.loc 2 425 2 view .LVU678
.LBB16537:
.LBI16537:
	.loc 2 27 16 view .LVU679
.LBB16538:
	.loc 2 29 2 view .LVU680
	.loc 2 30 2 view .LVU681
.LBE16538:
.LBE16537:
	.loc 2 421 1 is_stmt 0 view .LVU682
	pushq	%rbp
	.cfi_def_cfa_offset 16
	.cfi_offset 6, -16
.LBB16541:
.LBB16539:
	.loc 2 30 12 view .LVU683
	xorl	%edi, %edi
.LBE16539:
.LBE16541:
	.loc 2 421 1 view .LVU684
	movq	%rsp, %rbp
	.cfi_def_cfa_register 6
.LBB16542:
.LBB16540:
	.loc 2 30 12 view .LVU685
	call	_ZN5riscv10fenv_setrmEi
.LVL221:
	.loc 2 30 18 is_stmt 1 view .LVU686
	.loc 2 31 2 view .LVU687
	.loc 2 31 2 is_stmt 0 view .LVU688
.LBE16540:
.LBE16542:
	.loc 2 426 2 is_stmt 1 view .LVU689
.LBB16543:
.LBI16543:
	.loc 4 105 1 view .LVU690
.LBB16544:
	.loc 4 107 3 view .LVU691
	.loc 4 107 23 is_stmt 0 view .LVU692
	movl	$1, %edi
	movl	$1, %eax
.LBE16544:
.LBE16543:
	.loc 2 427 1 view .LVU693
	popq	%rbp
	.cfi_def_cfa 7, 8
.LBB16546:
.LBB16545:
	.loc 4 107 23 view .LVU694
	movsd	.LC14(%rip), %xmm0
	leaq	.LC13(%rip), %rsi
	jmp	__printf_chk@PLT
.LVL222:
.LBE16545:
.LBE16546:
	.cfi_endproc
.LFE590:
	.size	_Z14test_fmadd_s_2v, .-_Z14test_fmadd_s_2v
	.p2align 4
	.globl	_Z14test_fmadd_s_3v
	.type	_Z14test_fmadd_s_3v, @function
_Z14test_fmadd_s_3v:
.LFB591:
	.loc 2 430 1 is_stmt 1 view -0
	.cfi_startproc
	endbr64
	.loc 2 431 2 view .LVU696
.LVL223:
	.loc 2 432 2 view .LVU697
	.loc 2 433 2 view .LVU698
	.loc 2 434 2 view .LVU699
.LBB16551:
.LBI16551:
	.loc 2 27 16 view .LVU700
.LBB16552:
	.loc 2 29 2 view .LVU701
	.loc 2 30 2 view .LVU702
.LBE16552:
.LBE16551:
	.loc 2 430 1 is_stmt 0 view .LVU703
	pushq	%rbp
	.cfi_def_cfa_offset 16
	.cfi_offset 6, -16
.LBB16555:
.LBB16553:
	.loc 2 30 12 view .LVU704
	xorl	%edi, %edi
.LBE16553:
.LBE16555:
	.loc 2 430 1 view .LVU705
	movq	%rsp, %rbp
	.cfi_def_cfa_register 6
.LBB16556:
.LBB16554:
	.loc 2 30 12 view .LVU706
	call	_ZN5riscv10fenv_setrmEi
.LVL224:
	.loc 2 30 18 is_stmt 1 view .LVU707
	.loc 2 31 2 view .LVU708
	.loc 2 31 2 is_stmt 0 view .LVU709
.LBE16554:
.LBE16556:
	.loc 2 435 2 is_stmt 1 view .LVU710
.LBB16557:
.LBI16557:
	.loc 4 105 1 view .LVU711
.LBB16558:
	.loc 4 107 3 view .LVU712
	.loc 4 107 23 is_stmt 0 view .LVU713
	movl	$1, %edi
	movl	$1, %eax
.LBE16558:
.LBE16557:
	.loc 2 436 1 view .LVU714
	popq	%rbp
	.cfi_def_cfa 7, 8
.LBB16560:
.LBB16559:
	.loc 4 107 23 view .LVU715
	movsd	.LC15(%rip), %xmm0
	leaq	.LC13(%rip), %rsi
	jmp	__printf_chk@PLT
.LVL225:
.LBE16559:
.LBE16560:
	.cfi_endproc
.LFE591:
	.size	_Z14test_fmadd_s_3v, .-_Z14test_fmadd_s_3v
	.p2align 4
	.globl	_Z14test_fmadd_s_4v
	.type	_Z14test_fmadd_s_4v, @function
_Z14test_fmadd_s_4v:
.LFB592:
	.loc 2 439 1 is_stmt 1 view -0
	.cfi_startproc
	endbr64
	.loc 2 440 2 view .LVU717
.LVL226:
	.loc 2 441 2 view .LVU718
	.loc 2 442 2 view .LVU719
	.loc 2 443 2 view .LVU720
.LBB16565:
.LBI16565:
	.loc 2 27 16 view .LVU721
.LBB16566:
	.loc 2 29 2 view .LVU722
	.loc 2 30 2 view .LVU723
.LBE16566:
.LBE16565:
	.loc 2 439 1 is_stmt 0 view .LVU724
	pushq	%rbp
	.cfi_def_cfa_offset 16
	.cfi_offset 6, -16
.LBB16569:
.LBB16567:
	.loc 2 30 12 view .LVU725
	xorl	%edi, %edi
.LBE16567:
.LBE16569:
	.loc 2 439 1 view .LVU726
	movq	%rsp, %rbp
	.cfi_def_cfa_register 6
.LBB16570:
.LBB16568:
	.loc 2 30 12 view .LVU727
	call	_ZN5riscv10fenv_setrmEi
.LVL227:
	.loc 2 30 18 is_stmt 1 view .LVU728
	.loc 2 31 2 view .LVU729
	.loc 2 31 2 is_stmt 0 view .LVU730
.LBE16568:
.LBE16570:
	.loc 2 444 2 is_stmt 1 view .LVU731
.LBB16571:
.LBI16571:
	.loc 4 105 1 view .LVU732
.LBB16572:
	.loc 4 107 3 view .LVU733
	.loc 4 107 23 is_stmt 0 view .LVU734
	movl	$1, %edi
	movl	$1, %eax
.LBE16572:
.LBE16571:
	.loc 2 445 1 view .LVU735
	popq	%rbp
	.cfi_def_cfa 7, 8
.LBB16574:
.LBB16573:
	.loc 4 107 23 view .LVU736
	movsd	.LC16(%rip), %xmm0
	leaq	.LC13(%rip), %rsi
	jmp	__printf_chk@PLT
.LVL228:
.LBE16573:
.LBE16574:
	.cfi_endproc
.LFE592:
	.size	_Z14test_fmadd_s_4v, .-_Z14test_fmadd_s_4v
	.p2align 4
	.globl	_Z14test_fmadd_s_5v
	.type	_Z14test_fmadd_s_5v, @function
_Z14test_fmadd_s_5v:
.LFB593:
	.loc 2 448 1 is_stmt 1 view -0
	.cfi_startproc
	endbr64
	.loc 2 449 2 view .LVU738
.LVL229:
	.loc 2 450 2 view .LVU739
	.loc 2 451 2 view .LVU740
	.loc 2 452 2 view .LVU741
.LBB16575:
.LBI16575:
	.loc 2 27 16 view .LVU742
.LBB16576:
	.loc 2 29 2 view .LVU743
	.loc 2 30 2 view .LVU744
.LBE16576:
.LBE16575:
	.loc 2 448 1 is_stmt 0 view .LVU745
	pushq	%rbp
	.cfi_def_cfa_offset 16
	.cfi_offset 6, -16
.LBB16579:
.LBB16577:
	.loc 2 30 12 view .LVU746
	xorl	%edi, %edi
.LBE16577:
.LBE16579:
	.loc 2 448 1 view .LVU747
	movq	%rsp, %rbp
	.cfi_def_cfa_register 6
.LBB16580:
.LBB16578:
	.loc 2 30 12 view .LVU748
	call	_ZN5riscv10fenv_setrmEi
.LVL230:
	.loc 2 30 18 is_stmt 1 view .LVU749
	.loc 2 31 2 view .LVU750
	.loc 2 31 2 is_stmt 0 view .LVU751
.LBE16578:
.LBE16580:
	.loc 2 453 2 is_stmt 1 view .LVU752
.LBB16581:
.LBI16581:
	.loc 4 105 1 view .LVU753
.LBB16582:
	.loc 4 107 3 view .LVU754
	.loc 4 107 23 is_stmt 0 view .LVU755
	movl	$1, %edi
	movl	$1, %eax
.LBE16582:
.LBE16581:
	.loc 2 454 1 view .LVU756
	popq	%rbp
	.cfi_def_cfa 7, 8
.LBB16584:
.LBB16583:
	.loc 4 107 23 view .LVU757
	movsd	.LC17(%rip), %xmm0
	leaq	.LC13(%rip), %rsi
	jmp	__printf_chk@PLT
.LVL231:
.LBE16583:
.LBE16584:
	.cfi_endproc
.LFE593:
	.size	_Z14test_fmadd_s_5v, .-_Z14test_fmadd_s_5v
	.p2align 4
	.globl	_Z14test_fmadd_s_6v
	.type	_Z14test_fmadd_s_6v, @function
_Z14test_fmadd_s_6v:
.LFB594:
	.loc 2 457 1 is_stmt 1 view -0
	.cfi_startproc
	endbr64
	.loc 2 458 2 view .LVU759
.LVL232:
	.loc 2 459 2 view .LVU760
	.loc 2 460 2 view .LVU761
	.loc 2 461 2 view .LVU762
.LBB16585:
.LBI16585:
	.loc 2 27 16 view .LVU763
.LBB16586:
	.loc 2 29 2 view .LVU764
	.loc 2 30 2 view .LVU765
.LBE16586:
.LBE16585:
	.loc 2 457 1 is_stmt 0 view .LVU766
	pushq	%rbp
	.cfi_def_cfa_offset 16
	.cfi_offset 6, -16
.LBB16589:
.LBB16587:
	.loc 2 30 12 view .LVU767
	xorl	%edi, %edi
.LBE16587:
.LBE16589:
	.loc 2 457 1 view .LVU768
	movq	%rsp, %rbp
	.cfi_def_cfa_register 6
.LBB16590:
.LBB16588:
	.loc 2 30 12 view .LVU769
	call	_ZN5riscv10fenv_setrmEi
.LVL233:
	.loc 2 30 18 is_stmt 1 view .LVU770
	.loc 2 31 2 view .LVU771
	.loc 2 31 2 is_stmt 0 view .LVU772
.LBE16588:
.LBE16590:
	.loc 2 462 2 is_stmt 1 view .LVU773
.LBB16591:
.LBI16591:
	.loc 4 105 1 view .LVU774
.LBB16592:
	.loc 4 107 3 view .LVU775
	.loc 4 107 23 is_stmt 0 view .LVU776
	movl	$1, %edi
	movl	$1, %eax
.LBE16592:
.LBE16591:
	.loc 2 463 1 view .LVU777
	popq	%rbp
	.cfi_def_cfa 7, 8
.LBB16594:
.LBB16593:
	.loc 4 107 23 view .LVU778
	movsd	.LC18(%rip), %xmm0
	leaq	.LC13(%rip), %rsi
	jmp	__printf_chk@PLT
.LVL234:
.LBE16593:
.LBE16594:
	.cfi_endproc
.LFE594:
	.size	_Z14test_fmadd_s_6v, .-_Z14test_fmadd_s_6v
	.p2align 4
	.globl	_Z14test_fmadd_s_7v
	.type	_Z14test_fmadd_s_7v, @function
_Z14test_fmadd_s_7v:
.LFB595:
	.loc 2 466 1 is_stmt 1 view -0
	.cfi_startproc
	endbr64
	.loc 2 467 2 view .LVU780
.LVL235:
	.loc 2 468 2 view .LVU781
	.loc 2 469 2 view .LVU782
	.loc 2 470 2 view .LVU783
.LBB16599:
.LBI16599:
	.loc 2 27 16 view .LVU784
.LBB16600:
	.loc 2 29 2 view .LVU785
	.loc 2 30 2 view .LVU786
.LBE16600:
.LBE16599:
	.loc 2 466 1 is_stmt 0 view .LVU787
	pushq	%rbp
	.cfi_def_cfa_offset 16
	.cfi_offset 6, -16
.LBB16603:
.LBB16601:
	.loc 2 30 12 view .LVU788
	xorl	%edi, %edi
.LBE16601:
.LBE16603:
	.loc 2 466 1 view .LVU789
	movq	%rsp, %rbp
	.cfi_def_cfa_register 6
.LBB16604:
.LBB16602:
	.loc 2 30 12 view .LVU790
	call	_ZN5riscv10fenv_setrmEi
.LVL236:
	.loc 2 30 18 is_stmt 1 view .LVU791
	.loc 2 31 2 view .LVU792
	.loc 2 31 2 is_stmt 0 view .LVU793
.LBE16602:
.LBE16604:
	.loc 2 471 2 is_stmt 1 view .LVU794
.LBB16605:
.LBI16605:
	.loc 4 105 1 view .LVU795
.LBB16606:
	.loc 4 107 3 view .LVU796
	.loc 4 107 23 is_stmt 0 view .LVU797
	movl	$1, %edi
	movl	$1, %eax
.LBE16606:
.LBE16605:
	.loc 2 472 1 view .LVU798
	popq	%rbp
	.cfi_def_cfa 7, 8
.LBB16608:
.LBB16607:
	.loc 4 107 23 view .LVU799
	movsd	.LC19(%rip), %xmm0
	leaq	.LC13(%rip), %rsi
	jmp	__printf_chk@PLT
.LVL237:
.LBE16607:
.LBE16608:
	.cfi_endproc
.LFE595:
	.size	_Z14test_fmadd_s_7v, .-_Z14test_fmadd_s_7v
	.p2align 4
	.globl	_Z14test_fmadd_s_8v
	.type	_Z14test_fmadd_s_8v, @function
_Z14test_fmadd_s_8v:
.LFB596:
	.loc 2 475 1 is_stmt 1 view -0
	.cfi_startproc
	endbr64
	.loc 2 476 2 view .LVU801
.LVL238:
	.loc 2 477 2 view .LVU802
	.loc 2 478 2 view .LVU803
	.loc 2 479 2 view .LVU804
.LBB16613:
.LBI16613:
	.loc 2 27 16 view .LVU805
.LBB16614:
	.loc 2 29 2 view .LVU806
	.loc 2 30 2 view .LVU807
.LBE16614:
.LBE16613:
	.loc 2 475 1 is_stmt 0 view .LVU808
	pushq	%rbp
	.cfi_def_cfa_offset 16
	.cfi_offset 6, -16
.LBB16617:
.LBB16615:
	.loc 2 30 12 view .LVU809
	xorl	%edi, %edi
.LBE16615:
.LBE16617:
	.loc 2 475 1 view .LVU810
	movq	%rsp, %rbp
	.cfi_def_cfa_register 6
.LBB16618:
.LBB16616:
	.loc 2 30 12 view .LVU811
	call	_ZN5riscv10fenv_setrmEi
.LVL239:
	.loc 2 30 18 is_stmt 1 view .LVU812
	.loc 2 31 2 view .LVU813
	.loc 2 31 2 is_stmt 0 view .LVU814
.LBE16616:
.LBE16618:
	.loc 2 480 2 is_stmt 1 view .LVU815
.LBB16619:
.LBI16619:
	.loc 4 105 1 view .LVU816
.LBB16620:
	.loc 4 107 3 view .LVU817
	.loc 4 107 23 is_stmt 0 view .LVU818
	movl	$1, %edi
	movl	$1, %eax
.LBE16620:
.LBE16619:
	.loc 2 481 1 view .LVU819
	popq	%rbp
	.cfi_def_cfa 7, 8
.LBB16622:
.LBB16621:
	.loc 4 107 23 view .LVU820
	movsd	.LC20(%rip), %xmm0
	leaq	.LC13(%rip), %rsi
	jmp	__printf_chk@PLT
.LVL240:
.LBE16621:
.LBE16622:
	.cfi_endproc
.LFE596:
	.size	_Z14test_fmadd_s_8v, .-_Z14test_fmadd_s_8v
	.p2align 4
	.globl	_Z14test_fmadd_s_9v
	.type	_Z14test_fmadd_s_9v, @function
_Z14test_fmadd_s_9v:
.LFB597:
	.loc 2 484 1 is_stmt 1 view -0
	.cfi_startproc
	endbr64
	.loc 2 485 2 view .LVU822
.LVL241:
	.loc 2 486 2 view .LVU823
	.loc 2 487 2 view .LVU824
	.loc 2 488 2 view .LVU825
.LBB16627:
.LBI16627:
	.loc 2 27 16 view .LVU826
.LBB16628:
	.loc 2 29 2 view .LVU827
	.loc 2 30 2 view .LVU828
.LBE16628:
.LBE16627:
	.loc 2 484 1 is_stmt 0 view .LVU829
	pushq	%rbp
	.cfi_def_cfa_offset 16
	.cfi_offset 6, -16
.LBB16631:
.LBB16629:
	.loc 2 30 12 view .LVU830
	xorl	%edi, %edi
.LBE16629:
.LBE16631:
	.loc 2 484 1 view .LVU831
	movq	%rsp, %rbp
	.cfi_def_cfa_register 6
.LBB16632:
.LBB16630:
	.loc 2 30 12 view .LVU832
	call	_ZN5riscv10fenv_setrmEi
.LVL242:
	.loc 2 30 18 is_stmt 1 view .LVU833
	.loc 2 31 2 view .LVU834
	.loc 2 31 2 is_stmt 0 view .LVU835
.LBE16630:
.LBE16632:
	.loc 2 489 2 is_stmt 1 view .LVU836
.LBB16633:
.LBI16633:
	.loc 4 105 1 view .LVU837
.LBB16634:
	.loc 4 107 3 view .LVU838
	.loc 4 107 23 is_stmt 0 view .LVU839
	movl	$1, %edi
	movl	$1, %eax
.LBE16634:
.LBE16633:
	.loc 2 490 1 view .LVU840
	popq	%rbp
	.cfi_def_cfa 7, 8
.LBB16636:
.LBB16635:
	.loc 4 107 23 view .LVU841
	movsd	.LC21(%rip), %xmm0
	leaq	.LC13(%rip), %rsi
	jmp	__printf_chk@PLT
.LVL243:
.LBE16635:
.LBE16636:
	.cfi_endproc
.LFE597:
	.size	_Z14test_fmadd_s_9v, .-_Z14test_fmadd_s_9v
	.p2align 4
	.globl	_Z15test_fmadd_s_10v
	.type	_Z15test_fmadd_s_10v, @function
_Z15test_fmadd_s_10v:
.LFB598:
	.loc 2 493 1 is_stmt 1 view -0
	.cfi_startproc
	endbr64
	.loc 2 494 2 view .LVU843
.LVL244:
	.loc 2 495 2 view .LVU844
	.loc 2 496 2 view .LVU845
	.loc 2 497 2 view .LVU846
.LBB16641:
.LBI16641:
	.loc 2 27 16 view .LVU847
.LBB16642:
	.loc 2 29 2 view .LVU848
	.loc 2 30 2 view .LVU849
.LBE16642:
.LBE16641:
	.loc 2 493 1 is_stmt 0 view .LVU850
	pushq	%rbp
	.cfi_def_cfa_offset 16
	.cfi_offset 6, -16
.LBB16645:
.LBB16643:
	.loc 2 30 12 view .LVU851
	xorl	%edi, %edi
.LBE16643:
.LBE16645:
	.loc 2 493 1 view .LVU852
	movq	%rsp, %rbp
	.cfi_def_cfa_register 6
.LBB16646:
.LBB16644:
	.loc 2 30 12 view .LVU853
	call	_ZN5riscv10fenv_setrmEi
.LVL245:
	.loc 2 30 18 is_stmt 1 view .LVU854
	.loc 2 31 2 view .LVU855
	.loc 2 31 2 is_stmt 0 view .LVU856
.LBE16644:
.LBE16646:
	.loc 2 498 2 is_stmt 1 view .LVU857
.LBB16647:
.LBI16647:
	.loc 4 105 1 view .LVU858
.LBB16648:
	.loc 4 107 3 view .LVU859
	.loc 4 107 23 is_stmt 0 view .LVU860
	movl	$1, %edi
	movl	$1, %eax
.LBE16648:
.LBE16647:
	.loc 2 499 1 view .LVU861
	popq	%rbp
	.cfi_def_cfa 7, 8
.LBB16650:
.LBB16649:
	.loc 4 107 23 view .LVU862
	movsd	.LC22(%rip), %xmm0
	leaq	.LC13(%rip), %rsi
	jmp	__printf_chk@PLT
.LVL246:
.LBE16649:
.LBE16650:
	.cfi_endproc
.LFE598:
	.size	_Z15test_fmadd_s_10v, .-_Z15test_fmadd_s_10v
	.p2align 4
	.globl	_Z15test_fmadd_s_11v
	.type	_Z15test_fmadd_s_11v, @function
_Z15test_fmadd_s_11v:
.LFB3099:
	.cfi_startproc
	endbr64
	jmp	_Z14test_fmadd_s_5v
	.cfi_endproc
.LFE3099:
	.size	_Z15test_fmadd_s_11v, .-_Z15test_fmadd_s_11v
	.p2align 4
	.globl	_Z15test_fmadd_s_12v
	.type	_Z15test_fmadd_s_12v, @function
_Z15test_fmadd_s_12v:
.LFB3371:
	.cfi_startproc
	endbr64
	jmp	_Z14test_fmadd_s_6v
	.cfi_endproc
.LFE3371:
	.size	_Z15test_fmadd_s_12v, .-_Z15test_fmadd_s_12v
	.p2align 4
	.globl	_Z15test_fmadd_s_13v
	.type	_Z15test_fmadd_s_13v, @function
_Z15test_fmadd_s_13v:
.LFB601:
	.loc 2 520 1 is_stmt 1 view -0
	.cfi_startproc
	endbr64
	.loc 2 521 2 view .LVU864
.LVL247:
	.loc 2 522 2 view .LVU865
	.loc 2 523 2 view .LVU866
	.loc 2 524 2 view .LVU867
.LBB16655:
.LBI16655:
	.loc 2 27 16 view .LVU868
.LBB16656:
	.loc 2 29 2 view .LVU869
	.loc 2 30 2 view .LVU870
.LBE16656:
.LBE16655:
	.loc 2 520 1 is_stmt 0 view .LVU871
	pushq	%rbp
	.cfi_def_cfa_offset 16
	.cfi_offset 6, -16
.LBB16659:
.LBB16657:
	.loc 2 30 12 view .LVU872
	xorl	%edi, %edi
.LBE16657:
.LBE16659:
	.loc 2 520 1 view .LVU873
	movq	%rsp, %rbp
	.cfi_def_cfa_register 6
.LBB16660:
.LBB16658:
	.loc 2 30 12 view .LVU874
	call	_ZN5riscv10fenv_setrmEi
.LVL248:
	.loc 2 30 18 is_stmt 1 view .LVU875
	.loc 2 31 2 view .LVU876
	.loc 2 31 2 is_stmt 0 view .LVU877
.LBE16658:
.LBE16660:
	.loc 2 525 2 is_stmt 1 view .LVU878
.LBB16661:
.LBI16661:
	.loc 4 105 1 view .LVU879
.LBB16662:
	.loc 4 107 3 view .LVU880
	.loc 4 107 23 is_stmt 0 view .LVU881
	movl	$1, %edi
	movl	$1, %eax
.LBE16662:
.LBE16661:
	.loc 2 526 1 view .LVU882
	popq	%rbp
	.cfi_def_cfa 7, 8
.LBB16664:
.LBB16663:
	.loc 4 107 23 view .LVU883
	movsd	.LC23(%rip), %xmm0
	leaq	.LC13(%rip), %rsi
	jmp	__printf_chk@PLT
.LVL249:
.LBE16663:
.LBE16664:
	.cfi_endproc
.LFE601:
	.size	_Z15test_fmadd_s_13v, .-_Z15test_fmadd_s_13v
	.p2align 4
	.globl	_Z15test_fmadd_s_14v
	.type	_Z15test_fmadd_s_14v, @function
_Z15test_fmadd_s_14v:
.LFB602:
	.loc 2 529 1 is_stmt 1 view -0
	.cfi_startproc
	endbr64
	.loc 2 530 2 view .LVU885
.LVL250:
	.loc 2 531 2 view .LVU886
	.loc 2 532 2 view .LVU887
	.loc 2 533 2 view .LVU888
.LBB16669:
.LBI16669:
	.loc 2 27 16 view .LVU889
.LBB16670:
	.loc 2 29 2 view .LVU890
	.loc 2 30 2 view .LVU891
.LBE16670:
.LBE16669:
	.loc 2 529 1 is_stmt 0 view .LVU892
	pushq	%rbp
	.cfi_def_cfa_offset 16
	.cfi_offset 6, -16
.LBB16673:
.LBB16671:
	.loc 2 30 12 view .LVU893
	xorl	%edi, %edi
.LBE16671:
.LBE16673:
	.loc 2 529 1 view .LVU894
	movq	%rsp, %rbp
	.cfi_def_cfa_register 6
.LBB16674:
.LBB16672:
	.loc 2 30 12 view .LVU895
	call	_ZN5riscv10fenv_setrmEi
.LVL251:
	.loc 2 30 18 is_stmt 1 view .LVU896
	.loc 2 31 2 view .LVU897
	.loc 2 31 2 is_stmt 0 view .LVU898
.LBE16672:
.LBE16674:
	.loc 2 534 2 is_stmt 1 view .LVU899
.LBB16675:
.LBI16675:
	.loc 4 105 1 view .LVU900
.LBB16676:
	.loc 4 107 3 view .LVU901
	.loc 4 107 23 is_stmt 0 view .LVU902
	movl	$1, %edi
	movl	$1, %eax
.LBE16676:
.LBE16675:
	.loc 2 535 1 view .LVU903
	popq	%rbp
	.cfi_def_cfa 7, 8
.LBB16678:
.LBB16677:
	.loc 4 107 23 view .LVU904
	movsd	.LC24(%rip), %xmm0
	leaq	.LC13(%rip), %rsi
	jmp	__printf_chk@PLT
.LVL252:
.LBE16677:
.LBE16678:
	.cfi_endproc
.LFE602:
	.size	_Z15test_fmadd_s_14v, .-_Z15test_fmadd_s_14v
	.p2align 4
	.globl	_Z15test_fmadd_s_15v
	.type	_Z15test_fmadd_s_15v, @function
_Z15test_fmadd_s_15v:
.LFB603:
	.loc 2 538 1 is_stmt 1 view -0
	.cfi_startproc
	endbr64
	.loc 2 539 2 view .LVU906
.LVL253:
	.loc 2 540 2 view .LVU907
	.loc 2 541 2 view .LVU908
	.loc 2 542 2 view .LVU909
.LBB16683:
.LBI16683:
	.loc 2 27 16 view .LVU910
.LBB16684:
	.loc 2 29 2 view .LVU911
	.loc 2 30 2 view .LVU912
.LBE16684:
.LBE16683:
	.loc 2 538 1 is_stmt 0 view .LVU913
	pushq	%rbp
	.cfi_def_cfa_offset 16
	.cfi_offset 6, -16
.LBB16687:
.LBB16685:
	.loc 2 30 12 view .LVU914
	xorl	%edi, %edi
.LBE16685:
.LBE16687:
	.loc 2 538 1 view .LVU915
	movq	%rsp, %rbp
	.cfi_def_cfa_register 6
.LBB16688:
.LBB16686:
	.loc 2 30 12 view .LVU916
	call	_ZN5riscv10fenv_setrmEi
.LVL254:
	.loc 2 30 18 is_stmt 1 view .LVU917
	.loc 2 31 2 view .LVU918
	.loc 2 31 2 is_stmt 0 view .LVU919
.LBE16686:
.LBE16688:
	.loc 2 543 2 is_stmt 1 view .LVU920
.LBB16689:
.LBI16689:
	.loc 4 105 1 view .LVU921
.LBB16690:
	.loc 4 107 3 view .LVU922
	.loc 4 107 23 is_stmt 0 view .LVU923
	movl	$1, %edi
	movl	$1, %eax
.LBE16690:
.LBE16689:
	.loc 2 544 1 view .LVU924
	popq	%rbp
	.cfi_def_cfa 7, 8
.LBB16692:
.LBB16691:
	.loc 4 107 23 view .LVU925
	movsd	.LC25(%rip), %xmm0
	leaq	.LC13(%rip), %rsi
	jmp	__printf_chk@PLT
.LVL255:
.LBE16691:
.LBE16692:
	.cfi_endproc
.LFE603:
	.size	_Z15test_fmadd_s_15v, .-_Z15test_fmadd_s_15v
	.p2align 4
	.globl	_Z15test_fmadd_s_16v
	.type	_Z15test_fmadd_s_16v, @function
_Z15test_fmadd_s_16v:
.LFB604:
	.loc 2 547 1 is_stmt 1 view -0
	.cfi_startproc
	endbr64
	.loc 2 548 2 view .LVU927
.LVL256:
	.loc 2 549 2 view .LVU928
	.loc 2 550 2 view .LVU929
	.loc 2 551 2 view .LVU930
.LBB16697:
.LBI16697:
	.loc 2 27 16 view .LVU931
.LBB16698:
	.loc 2 29 2 view .LVU932
	.loc 2 30 2 view .LVU933
.LBE16698:
.LBE16697:
	.loc 2 547 1 is_stmt 0 view .LVU934
	pushq	%rbp
	.cfi_def_cfa_offset 16
	.cfi_offset 6, -16
.LBB16701:
.LBB16699:
	.loc 2 30 12 view .LVU935
	xorl	%edi, %edi
.LBE16699:
.LBE16701:
	.loc 2 547 1 view .LVU936
	movq	%rsp, %rbp
	.cfi_def_cfa_register 6
.LBB16702:
.LBB16700:
	.loc 2 30 12 view .LVU937
	call	_ZN5riscv10fenv_setrmEi
.LVL257:
	.loc 2 30 18 is_stmt 1 view .LVU938
	.loc 2 31 2 view .LVU939
	.loc 2 31 2 is_stmt 0 view .LVU940
.LBE16700:
.LBE16702:
	.loc 2 552 2 is_stmt 1 view .LVU941
.LBB16703:
.LBI16703:
	.loc 4 105 1 view .LVU942
.LBB16704:
	.loc 4 107 3 view .LVU943
	.loc 4 107 23 is_stmt 0 view .LVU944
	pxor	%xmm0, %xmm0
	movl	$1, %edi
.LBE16704:
.LBE16703:
	.loc 2 553 1 view .LVU945
	popq	%rbp
	.cfi_def_cfa 7, 8
.LBB16706:
.LBB16705:
	.loc 4 107 23 view .LVU946
	leaq	.LC13(%rip), %rsi
	movl	$1, %eax
	jmp	__printf_chk@PLT
.LVL258:
.LBE16705:
.LBE16706:
	.cfi_endproc
.LFE604:
	.size	_Z15test_fmadd_s_16v, .-_Z15test_fmadd_s_16v
	.p2align 4
	.globl	_Z15test_fmadd_s_17v
	.type	_Z15test_fmadd_s_17v, @function
_Z15test_fmadd_s_17v:
.LFB3101:
	.cfi_startproc
	endbr64
	jmp	_Z14test_fmadd_s_5v
	.cfi_endproc
.LFE3101:
	.size	_Z15test_fmadd_s_17v, .-_Z15test_fmadd_s_17v
	.p2align 4
	.globl	_Z15test_fmadd_s_18v
	.type	_Z15test_fmadd_s_18v, @function
_Z15test_fmadd_s_18v:
.LFB3373:
	.cfi_startproc
	endbr64
	jmp	_Z14test_fmadd_s_6v
	.cfi_endproc
.LFE3373:
	.size	_Z15test_fmadd_s_18v, .-_Z15test_fmadd_s_18v
	.p2align 4
	.globl	_Z15test_fmadd_s_19v
	.type	_Z15test_fmadd_s_19v, @function
_Z15test_fmadd_s_19v:
.LFB607:
	.loc 2 574 1 is_stmt 1 view -0
	.cfi_startproc
	endbr64
	.loc 2 575 2 view .LVU948
.LVL259:
	.loc 2 576 2 view .LVU949
	.loc 2 577 2 view .LVU950
	.loc 2 578 2 view .LVU951
.LBB16711:
.LBI16711:
	.loc 2 27 16 view .LVU952
.LBB16712:
	.loc 2 29 2 view .LVU953
	.loc 2 30 2 view .LVU954
.LBE16712:
.LBE16711:
	.loc 2 574 1 is_stmt 0 view .LVU955
	pushq	%rbp
	.cfi_def_cfa_offset 16
	.cfi_offset 6, -16
.LBB16715:
.LBB16713:
	.loc 2 30 12 view .LVU956
	xorl	%edi, %edi
.LBE16713:
.LBE16715:
	.loc 2 574 1 view .LVU957
	movq	%rsp, %rbp
	.cfi_def_cfa_register 6
.LBB16716:
.LBB16714:
	.loc 2 30 12 view .LVU958
	call	_ZN5riscv10fenv_setrmEi
.LVL260:
	.loc 2 30 18 is_stmt 1 view .LVU959
	.loc 2 31 2 view .LVU960
	.loc 2 31 2 is_stmt 0 view .LVU961
.LBE16714:
.LBE16716:
	.loc 2 579 2 is_stmt 1 view .LVU962
.LBB16717:
.LBI16717:
	.loc 4 105 1 view .LVU963
.LBB16718:
	.loc 4 107 3 view .LVU964
	.loc 4 107 23 is_stmt 0 view .LVU965
	movl	$1, %edi
	movl	$1, %eax
.LBE16718:
.LBE16717:
	.loc 2 580 1 view .LVU966
	popq	%rbp
	.cfi_def_cfa 7, 8
.LBB16720:
.LBB16719:
	.loc 4 107 23 view .LVU967
	movsd	.LC26(%rip), %xmm0
	leaq	.LC13(%rip), %rsi
	jmp	__printf_chk@PLT
.LVL261:
.LBE16719:
.LBE16720:
	.cfi_endproc
.LFE607:
	.size	_Z15test_fmadd_s_19v, .-_Z15test_fmadd_s_19v
	.p2align 4
	.globl	_Z15test_fmadd_s_20v
	.type	_Z15test_fmadd_s_20v, @function
_Z15test_fmadd_s_20v:
.LFB608:
	.loc 2 583 1 is_stmt 1 view -0
	.cfi_startproc
	endbr64
	.loc 2 584 2 view .LVU969
.LVL262:
	.loc 2 585 2 view .LVU970
	.loc 2 586 2 view .LVU971
	.loc 2 587 2 view .LVU972
.LBB16725:
.LBI16725:
	.loc 2 27 16 view .LVU973
.LBB16726:
	.loc 2 29 2 view .LVU974
	.loc 2 30 2 view .LVU975
.LBE16726:
.LBE16725:
	.loc 2 583 1 is_stmt 0 view .LVU976
	pushq	%rbp
	.cfi_def_cfa_offset 16
	.cfi_offset 6, -16
.LBB16729:
.LBB16727:
	.loc 2 30 12 view .LVU977
	xorl	%edi, %edi
.LBE16727:
.LBE16729:
	.loc 2 583 1 view .LVU978
	movq	%rsp, %rbp
	.cfi_def_cfa_register 6
.LBB16730:
.LBB16728:
	.loc 2 30 12 view .LVU979
	call	_ZN5riscv10fenv_setrmEi
.LVL263:
	.loc 2 30 18 is_stmt 1 view .LVU980
	.loc 2 31 2 view .LVU981
	.loc 2 31 2 is_stmt 0 view .LVU982
.LBE16728:
.LBE16730:
	.loc 2 588 2 is_stmt 1 view .LVU983
.LBB16731:
.LBI16731:
	.loc 4 105 1 view .LVU984
.LBB16732:
	.loc 4 107 3 view .LVU985
	.loc 4 107 23 is_stmt 0 view .LVU986
	movl	$1, %edi
	movl	$1, %eax
.LBE16732:
.LBE16731:
	.loc 2 589 1 view .LVU987
	popq	%rbp
	.cfi_def_cfa 7, 8
.LBB16734:
.LBB16733:
	.loc 4 107 23 view .LVU988
	movsd	.LC27(%rip), %xmm0
	leaq	.LC13(%rip), %rsi
	jmp	__printf_chk@PLT
.LVL264:
.LBE16733:
.LBE16734:
	.cfi_endproc
.LFE608:
	.size	_Z15test_fmadd_s_20v, .-_Z15test_fmadd_s_20v
	.p2align 4
	.globl	_Z15test_fmadd_s_21v
	.type	_Z15test_fmadd_s_21v, @function
_Z15test_fmadd_s_21v:
.LFB609:
	.loc 2 592 1 is_stmt 1 view -0
	.cfi_startproc
	endbr64
	.loc 2 593 2 view .LVU990
.LVL265:
	.loc 2 594 2 view .LVU991
	.loc 2 595 2 view .LVU992
	.loc 2 596 2 view .LVU993
.LBB16739:
.LBI16739:
	.loc 2 27 16 view .LVU994
.LBB16740:
	.loc 2 29 2 view .LVU995
	.loc 2 30 2 view .LVU996
.LBE16740:
.LBE16739:
	.loc 2 592 1 is_stmt 0 view .LVU997
	pushq	%rbp
	.cfi_def_cfa_offset 16
	.cfi_offset 6, -16
.LBB16743:
.LBB16741:
	.loc 2 30 12 view .LVU998
	xorl	%edi, %edi
.LBE16741:
.LBE16743:
	.loc 2 592 1 view .LVU999
	movq	%rsp, %rbp
	.cfi_def_cfa_register 6
.LBB16744:
.LBB16742:
	.loc 2 30 12 view .LVU1000
	call	_ZN5riscv10fenv_setrmEi
.LVL266:
	.loc 2 30 18 is_stmt 1 view .LVU1001
	.loc 2 31 2 view .LVU1002
	.loc 2 31 2 is_stmt 0 view .LVU1003
.LBE16742:
.LBE16744:
	.loc 2 597 2 is_stmt 1 view .LVU1004
.LBB16745:
.LBI16745:
	.loc 4 105 1 view .LVU1005
.LBB16746:
	.loc 4 107 3 view .LVU1006
	.loc 4 107 23 is_stmt 0 view .LVU1007
	movl	$1, %edi
	movl	$1, %eax
.LBE16746:
.LBE16745:
	.loc 2 598 1 view .LVU1008
	popq	%rbp
	.cfi_def_cfa 7, 8
.LBB16748:
.LBB16747:
	.loc 4 107 23 view .LVU1009
	movsd	.LC28(%rip), %xmm0
	leaq	.LC13(%rip), %rsi
	jmp	__printf_chk@PLT
.LVL267:
.LBE16747:
.LBE16748:
	.cfi_endproc
.LFE609:
	.size	_Z15test_fmadd_s_21v, .-_Z15test_fmadd_s_21v
	.p2align 4
	.globl	_Z15test_fmadd_s_22v
	.type	_Z15test_fmadd_s_22v, @function
_Z15test_fmadd_s_22v:
.LFB610:
	.loc 2 601 1 is_stmt 1 view -0
	.cfi_startproc
	endbr64
	.loc 2 602 2 view .LVU1011
.LVL268:
	.loc 2 603 2 view .LVU1012
	.loc 2 604 2 view .LVU1013
	.loc 2 605 2 view .LVU1014
.LBB16753:
.LBI16753:
	.loc 2 27 16 view .LVU1015
.LBB16754:
	.loc 2 29 2 view .LVU1016
	.loc 2 30 2 view .LVU1017
.LBE16754:
.LBE16753:
	.loc 2 601 1 is_stmt 0 view .LVU1018
	pushq	%rbp
	.cfi_def_cfa_offset 16
	.cfi_offset 6, -16
.LBB16757:
.LBB16755:
	.loc 2 30 12 view .LVU1019
	xorl	%edi, %edi
.LBE16755:
.LBE16757:
	.loc 2 601 1 view .LVU1020
	movq	%rsp, %rbp
	.cfi_def_cfa_register 6
.LBB16758:
.LBB16756:
	.loc 2 30 12 view .LVU1021
	call	_ZN5riscv10fenv_setrmEi
.LVL269:
	.loc 2 30 18 is_stmt 1 view .LVU1022
	.loc 2 31 2 view .LVU1023
	.loc 2 31 2 is_stmt 0 view .LVU1024
.LBE16756:
.LBE16758:
	.loc 2 606 2 is_stmt 1 view .LVU1025
.LBB16759:
.LBI16759:
	.loc 4 105 1 view .LVU1026
.LBB16760:
	.loc 4 107 3 view .LVU1027
	.loc 4 107 23 is_stmt 0 view .LVU1028
	movl	$1, %edi
	movl	$1, %eax
.LBE16760:
.LBE16759:
	.loc 2 607 1 view .LVU1029
	popq	%rbp
	.cfi_def_cfa 7, 8
.LBB16762:
.LBB16761:
	.loc 4 107 23 view .LVU1030
	movsd	.LC29(%rip), %xmm0
	leaq	.LC13(%rip), %rsi
	jmp	__printf_chk@PLT
.LVL270:
.LBE16761:
.LBE16762:
	.cfi_endproc
.LFE610:
	.size	_Z15test_fmadd_s_22v, .-_Z15test_fmadd_s_22v
	.p2align 4
	.globl	_Z15test_fmadd_s_23v
	.type	_Z15test_fmadd_s_23v, @function
_Z15test_fmadd_s_23v:
.LFB3103:
	.cfi_startproc
	endbr64
	jmp	_Z14test_fmadd_s_5v
	.cfi_endproc
.LFE3103:
	.size	_Z15test_fmadd_s_23v, .-_Z15test_fmadd_s_23v
	.p2align 4
	.globl	_Z15test_fmadd_s_24v
	.type	_Z15test_fmadd_s_24v, @function
_Z15test_fmadd_s_24v:
.LFB3375:
	.cfi_startproc
	endbr64
	jmp	_Z14test_fmadd_s_6v
	.cfi_endproc
.LFE3375:
	.size	_Z15test_fmadd_s_24v, .-_Z15test_fmadd_s_24v
	.p2align 4
	.globl	_Z15test_fmadd_s_25v
	.type	_Z15test_fmadd_s_25v, @function
_Z15test_fmadd_s_25v:
.LFB613:
	.loc 2 628 1 is_stmt 1 view -0
	.cfi_startproc
	endbr64
	.loc 2 629 2 view .LVU1032
.LVL271:
	.loc 2 630 2 view .LVU1033
	.loc 2 631 2 view .LVU1034
	.loc 2 632 2 view .LVU1035
.LBB16767:
.LBI16767:
	.loc 2 27 16 view .LVU1036
.LBB16768:
	.loc 2 29 2 view .LVU1037
	.loc 2 30 2 view .LVU1038
.LBE16768:
.LBE16767:
	.loc 2 628 1 is_stmt 0 view .LVU1039
	pushq	%rbp
	.cfi_def_cfa_offset 16
	.cfi_offset 6, -16
.LBB16771:
.LBB16769:
	.loc 2 30 12 view .LVU1040
	xorl	%edi, %edi
.LBE16769:
.LBE16771:
	.loc 2 628 1 view .LVU1041
	movq	%rsp, %rbp
	.cfi_def_cfa_register 6
.LBB16772:
.LBB16770:
	.loc 2 30 12 view .LVU1042
	call	_ZN5riscv10fenv_setrmEi
.LVL272:
	.loc 2 30 18 is_stmt 1 view .LVU1043
	.loc 2 31 2 view .LVU1044
	.loc 2 31 2 is_stmt 0 view .LVU1045
.LBE16770:
.LBE16772:
	.loc 2 633 2 is_stmt 1 view .LVU1046
.LBB16773:
.LBI16773:
	.loc 4 105 1 view .LVU1047
.LBB16774:
	.loc 4 107 3 view .LVU1048
	.loc 4 107 23 is_stmt 0 view .LVU1049
	movl	$1, %edi
	movl	$1, %eax
.LBE16774:
.LBE16773:
	.loc 2 634 1 view .LVU1050
	popq	%rbp
	.cfi_def_cfa 7, 8
.LBB16776:
.LBB16775:
	.loc 4 107 23 view .LVU1051
	movsd	.LC30(%rip), %xmm0
	leaq	.LC13(%rip), %rsi
	jmp	__printf_chk@PLT
.LVL273:
.LBE16775:
.LBE16776:
	.cfi_endproc
.LFE613:
	.size	_Z15test_fmadd_s_25v, .-_Z15test_fmadd_s_25v
	.p2align 4
	.globl	_Z15test_fmadd_s_26v
	.type	_Z15test_fmadd_s_26v, @function
_Z15test_fmadd_s_26v:
.LFB4327:
	.cfi_startproc
	endbr64
	pushq	%rbp
	.cfi_def_cfa_offset 16
	.cfi_offset 6, -16
	xorl	%edi, %edi
	movq	%rsp, %rbp
	.cfi_def_cfa_register 6
	call	_ZN5riscv10fenv_setrmEi
	movl	$1, %edi
	movl	$1, %eax
	popq	%rbp
	.cfi_def_cfa 7, 8
	movsd	.LC30(%rip), %xmm0
	leaq	.LC13(%rip), %rsi
	jmp	__printf_chk@PLT
	.cfi_endproc
.LFE4327:
	.size	_Z15test_fmadd_s_26v, .-_Z15test_fmadd_s_26v
	.p2align 4
	.globl	_Z15test_fmadd_s_27v
	.type	_Z15test_fmadd_s_27v, @function
_Z15test_fmadd_s_27v:
.LFB4329:
	.cfi_startproc
	endbr64
	pushq	%rbp
	.cfi_def_cfa_offset 16
	.cfi_offset 6, -16
	xorl	%edi, %edi
	movq	%rsp, %rbp
	.cfi_def_cfa_register 6
	call	_ZN5riscv10fenv_setrmEi
	movl	$1, %edi
	movl	$1, %eax
	popq	%rbp
	.cfi_def_cfa 7, 8
	movsd	.LC30(%rip), %xmm0
	leaq	.LC13(%rip), %rsi
	jmp	__printf_chk@PLT
	.cfi_endproc
.LFE4329:
	.size	_Z15test_fmadd_s_27v, .-_Z15test_fmadd_s_27v
	.p2align 4
	.globl	_Z15test_fmadd_s_28v
	.type	_Z15test_fmadd_s_28v, @function
_Z15test_fmadd_s_28v:
.LFB4331:
	.cfi_startproc
	endbr64
	pushq	%rbp
	.cfi_def_cfa_offset 16
	.cfi_offset 6, -16
	xorl	%edi, %edi
	movq	%rsp, %rbp
	.cfi_def_cfa_register 6
	call	_ZN5riscv10fenv_setrmEi
	movl	$1, %edi
	movl	$1, %eax
	popq	%rbp
	.cfi_def_cfa 7, 8
	movsd	.LC30(%rip), %xmm0
	leaq	.LC13(%rip), %rsi
	jmp	__printf_chk@PLT
	.cfi_endproc
.LFE4331:
	.size	_Z15test_fmadd_s_28v, .-_Z15test_fmadd_s_28v
	.p2align 4
	.globl	_Z15test_fmadd_s_29v
	.type	_Z15test_fmadd_s_29v, @function
_Z15test_fmadd_s_29v:
.LFB3377:
	.cfi_startproc
	endbr64
	jmp	_Z14test_fmadd_s_6v
	.cfi_endproc
.LFE3377:
	.size	_Z15test_fmadd_s_29v, .-_Z15test_fmadd_s_29v
	.p2align 4
	.globl	_Z15test_fmadd_s_30v
	.type	_Z15test_fmadd_s_30v, @function
_Z15test_fmadd_s_30v:
.LFB3379:
	.cfi_startproc
	endbr64
	jmp	_Z14test_fmadd_s_6v
	.cfi_endproc
.LFE3379:
	.size	_Z15test_fmadd_s_30v, .-_Z15test_fmadd_s_30v
	.p2align 4
	.globl	_Z15test_fmadd_s_31v
	.type	_Z15test_fmadd_s_31v, @function
_Z15test_fmadd_s_31v:
.LFB3381:
	.cfi_startproc
	endbr64
	jmp	_Z14test_fmadd_s_6v
	.cfi_endproc
.LFE3381:
	.size	_Z15test_fmadd_s_31v, .-_Z15test_fmadd_s_31v
	.p2align 4
	.globl	_Z15test_fmadd_s_32v
	.type	_Z15test_fmadd_s_32v, @function
_Z15test_fmadd_s_32v:
.LFB3383:
	.cfi_startproc
	endbr64
	jmp	_Z14test_fmadd_s_6v
	.cfi_endproc
.LFE3383:
	.size	_Z15test_fmadd_s_32v, .-_Z15test_fmadd_s_32v
	.p2align 4
	.globl	_Z15test_fmadd_s_33v
	.type	_Z15test_fmadd_s_33v, @function
_Z15test_fmadd_s_33v:
.LFB3385:
	.cfi_startproc
	endbr64
	jmp	_Z14test_fmadd_s_6v
	.cfi_endproc
.LFE3385:
	.size	_Z15test_fmadd_s_33v, .-_Z15test_fmadd_s_33v
	.p2align 4
	.globl	_Z15test_fmadd_s_34v
	.type	_Z15test_fmadd_s_34v, @function
_Z15test_fmadd_s_34v:
.LFB3387:
	.cfi_startproc
	endbr64
	jmp	_Z14test_fmadd_s_6v
	.cfi_endproc
.LFE3387:
	.size	_Z15test_fmadd_s_34v, .-_Z15test_fmadd_s_34v
	.p2align 4
	.globl	_Z15test_fmadd_s_35v
	.type	_Z15test_fmadd_s_35v, @function
_Z15test_fmadd_s_35v:
.LFB3389:
	.cfi_startproc
	endbr64
	jmp	_Z14test_fmadd_s_6v
	.cfi_endproc
.LFE3389:
	.size	_Z15test_fmadd_s_35v, .-_Z15test_fmadd_s_35v
	.p2align 4
	.globl	_Z15test_fmadd_s_36v
	.type	_Z15test_fmadd_s_36v, @function
_Z15test_fmadd_s_36v:
.LFB3391:
	.cfi_startproc
	endbr64
	jmp	_Z14test_fmadd_s_6v
	.cfi_endproc
.LFE3391:
	.size	_Z15test_fmadd_s_36v, .-_Z15test_fmadd_s_36v
	.p2align 4
	.globl	_Z15test_fmadd_s_37v
	.type	_Z15test_fmadd_s_37v, @function
_Z15test_fmadd_s_37v:
.LFB4117:
	.cfi_startproc
	endbr64
	pushq	%rbp
	.cfi_def_cfa_offset 16
	.cfi_offset 6, -16
	xorl	%edi, %edi
	movq	%rsp, %rbp
	.cfi_def_cfa_register 6
	call	_ZN5riscv10fenv_setrmEi
	movl	$1, %edi
	movl	$1, %eax
	popq	%rbp
	.cfi_def_cfa 7, 8
	movsd	.LC19(%rip), %xmm0
	leaq	.LC13(%rip), %rsi
	jmp	__printf_chk@PLT
	.cfi_endproc
.LFE4117:
	.size	_Z15test_fmadd_s_37v, .-_Z15test_fmadd_s_37v
	.p2align 4
	.globl	_Z15test_fmadd_s_38v
	.type	_Z15test_fmadd_s_38v, @function
_Z15test_fmadd_s_38v:
.LFB4131:
	.cfi_startproc
	endbr64
	pushq	%rbp
	.cfi_def_cfa_offset 16
	.cfi_offset 6, -16
	xorl	%edi, %edi
	movq	%rsp, %rbp
	.cfi_def_cfa_register 6
	call	_ZN5riscv10fenv_setrmEi
	movl	$1, %edi
	movl	$1, %eax
	popq	%rbp
	.cfi_def_cfa 7, 8
	movsd	.LC20(%rip), %xmm0
	leaq	.LC13(%rip), %rsi
	jmp	__printf_chk@PLT
	.cfi_endproc
.LFE4131:
	.size	_Z15test_fmadd_s_38v, .-_Z15test_fmadd_s_38v
	.p2align 4
	.globl	_Z15test_fmadd_s_39v
	.type	_Z15test_fmadd_s_39v, @function
_Z15test_fmadd_s_39v:
.LFB4149:
	.cfi_startproc
	endbr64
	pushq	%rbp
	.cfi_def_cfa_offset 16
	.cfi_offset 6, -16
	xorl	%edi, %edi
	movq	%rsp, %rbp
	.cfi_def_cfa_register 6
	call	_ZN5riscv10fenv_setrmEi
	movl	$1, %edi
	movl	$1, %eax
	popq	%rbp
	.cfi_def_cfa 7, 8
	movsd	.LC21(%rip), %xmm0
	leaq	.LC13(%rip), %rsi
	jmp	__printf_chk@PLT
	.cfi_endproc
.LFE4149:
	.size	_Z15test_fmadd_s_39v, .-_Z15test_fmadd_s_39v
	.p2align 4
	.globl	_Z15test_fmadd_s_40v
	.type	_Z15test_fmadd_s_40v, @function
_Z15test_fmadd_s_40v:
.LFB4155:
	.cfi_startproc
	endbr64
	pushq	%rbp
	.cfi_def_cfa_offset 16
	.cfi_offset 6, -16
	xorl	%edi, %edi
	movq	%rsp, %rbp
	.cfi_def_cfa_register 6
	call	_ZN5riscv10fenv_setrmEi
	movl	$1, %edi
	movl	$1, %eax
	popq	%rbp
	.cfi_def_cfa 7, 8
	movsd	.LC22(%rip), %xmm0
	leaq	.LC13(%rip), %rsi
	jmp	__printf_chk@PLT
	.cfi_endproc
.LFE4155:
	.size	_Z15test_fmadd_s_40v, .-_Z15test_fmadd_s_40v
	.p2align 4
	.globl	_Z15test_fmadd_s_41v
	.type	_Z15test_fmadd_s_41v, @function
_Z15test_fmadd_s_41v:
.LFB3105:
	.cfi_startproc
	endbr64
	jmp	_Z14test_fmadd_s_5v
	.cfi_endproc
.LFE3105:
	.size	_Z15test_fmadd_s_41v, .-_Z15test_fmadd_s_41v
	.p2align 4
	.globl	_Z15test_fmadd_s_42v
	.type	_Z15test_fmadd_s_42v, @function
_Z15test_fmadd_s_42v:
.LFB3393:
	.cfi_startproc
	endbr64
	jmp	_Z14test_fmadd_s_6v
	.cfi_endproc
.LFE3393:
	.size	_Z15test_fmadd_s_42v, .-_Z15test_fmadd_s_42v
	.p2align 4
	.globl	_Z15test_fmadd_s_43v
	.type	_Z15test_fmadd_s_43v, @function
_Z15test_fmadd_s_43v:
.LFB3051:
	.cfi_startproc
	endbr64
	pushq	%rbp
	.cfi_def_cfa_offset 16
	.cfi_offset 6, -16
	xorl	%edi, %edi
	movq	%rsp, %rbp
	.cfi_def_cfa_register 6
	call	_ZN5riscv10fenv_setrmEi
	movl	$1, %edi
	movl	$1, %eax
	popq	%rbp
	.cfi_def_cfa 7, 8
	movsd	.LC12(%rip), %xmm0
	leaq	.LC13(%rip), %rsi
	jmp	__printf_chk@PLT
	.cfi_endproc
.LFE3051:
	.size	_Z15test_fmadd_s_43v, .-_Z15test_fmadd_s_43v
	.p2align 4
	.globl	_Z15test_fmadd_s_44v
	.type	_Z15test_fmadd_s_44v, @function
_Z15test_fmadd_s_44v:
.LFB3073:
	.cfi_startproc
	endbr64
	pushq	%rbp
	.cfi_def_cfa_offset 16
	.cfi_offset 6, -16
	xorl	%edi, %edi
	movq	%rsp, %rbp
	.cfi_def_cfa_register 6
	call	_ZN5riscv10fenv_setrmEi
	movl	$1, %edi
	movl	$1, %eax
	popq	%rbp
	.cfi_def_cfa 7, 8
	movsd	.LC14(%rip), %xmm0
	leaq	.LC13(%rip), %rsi
	jmp	__printf_chk@PLT
	.cfi_endproc
.LFE3073:
	.size	_Z15test_fmadd_s_44v, .-_Z15test_fmadd_s_44v
	.p2align 4
	.globl	_Z15test_fmadd_s_45v
	.type	_Z15test_fmadd_s_45v, @function
_Z15test_fmadd_s_45v:
.LFB3087:
	.cfi_startproc
	endbr64
	pushq	%rbp
	.cfi_def_cfa_offset 16
	.cfi_offset 6, -16
	xorl	%edi, %edi
	movq	%rsp, %rbp
	.cfi_def_cfa_register 6
	call	_ZN5riscv10fenv_setrmEi
	movl	$1, %edi
	movl	$1, %eax
	popq	%rbp
	.cfi_def_cfa 7, 8
	movsd	.LC15(%rip), %xmm0
	leaq	.LC13(%rip), %rsi
	jmp	__printf_chk@PLT
	.cfi_endproc
.LFE3087:
	.size	_Z15test_fmadd_s_45v, .-_Z15test_fmadd_s_45v
	.p2align 4
	.globl	_Z15test_fmadd_s_46v
	.type	_Z15test_fmadd_s_46v, @function
_Z15test_fmadd_s_46v:
.LFB3093:
	.cfi_startproc
	endbr64
	pushq	%rbp
	.cfi_def_cfa_offset 16
	.cfi_offset 6, -16
	xorl	%edi, %edi
	movq	%rsp, %rbp
	.cfi_def_cfa_register 6
	call	_ZN5riscv10fenv_setrmEi
	movl	$1, %edi
	movl	$1, %eax
	popq	%rbp
	.cfi_def_cfa 7, 8
	movsd	.LC16(%rip), %xmm0
	leaq	.LC13(%rip), %rsi
	jmp	__printf_chk@PLT
	.cfi_endproc
.LFE3093:
	.size	_Z15test_fmadd_s_46v, .-_Z15test_fmadd_s_46v
	.p2align 4
	.globl	_Z15test_fmadd_s_47v
	.type	_Z15test_fmadd_s_47v, @function
_Z15test_fmadd_s_47v:
.LFB3107:
	.cfi_startproc
	endbr64
	jmp	_Z14test_fmadd_s_5v
	.cfi_endproc
.LFE3107:
	.size	_Z15test_fmadd_s_47v, .-_Z15test_fmadd_s_47v
	.p2align 4
	.globl	_Z15test_fmadd_s_48v
	.type	_Z15test_fmadd_s_48v, @function
_Z15test_fmadd_s_48v:
.LFB3395:
	.cfi_startproc
	endbr64
	jmp	_Z14test_fmadd_s_6v
	.cfi_endproc
.LFE3395:
	.size	_Z15test_fmadd_s_48v, .-_Z15test_fmadd_s_48v
	.p2align 4
	.globl	_Z15test_fmadd_s_49v
	.type	_Z15test_fmadd_s_49v, @function
_Z15test_fmadd_s_49v:
.LFB637:
	.loc 2 844 1 is_stmt 1 view -0
	.cfi_startproc
	endbr64
	.loc 2 845 2 view .LVU1053
.LVL274:
	.loc 2 846 2 view .LVU1054
	.loc 2 847 2 view .LVU1055
	.loc 2 848 2 view .LVU1056
.LBB16781:
.LBI16781:
	.loc 2 27 16 view .LVU1057
.LBB16782:
	.loc 2 29 2 view .LVU1058
	.loc 2 30 2 view .LVU1059
.LBE16782:
.LBE16781:
	.loc 2 844 1 is_stmt 0 view .LVU1060
	pushq	%rbp
	.cfi_def_cfa_offset 16
	.cfi_offset 6, -16
.LBB16785:
.LBB16783:
	.loc 2 30 12 view .LVU1061
	xorl	%edi, %edi
.LBE16783:
.LBE16785:
	.loc 2 844 1 view .LVU1062
	movq	%rsp, %rbp
	.cfi_def_cfa_register 6
.LBB16786:
.LBB16784:
	.loc 2 30 12 view .LVU1063
	call	_ZN5riscv10fenv_setrmEi
.LVL275:
	.loc 2 30 18 is_stmt 1 view .LVU1064
	.loc 2 31 2 view .LVU1065
	.loc 2 31 2 is_stmt 0 view .LVU1066
.LBE16784:
.LBE16786:
	.loc 2 849 2 is_stmt 1 view .LVU1067
.LBB16787:
.LBI16787:
	.loc 4 105 1 view .LVU1068
.LBB16788:
	.loc 4 107 3 view .LVU1069
	.loc 4 107 23 is_stmt 0 view .LVU1070
	movl	$1, %edi
	movl	$1, %eax
.LBE16788:
.LBE16787:
	.loc 2 850 1 view .LVU1071
	popq	%rbp
	.cfi_def_cfa 7, 8
.LBB16790:
.LBB16789:
	.loc 4 107 23 view .LVU1072
	movsd	.LC31(%rip), %xmm0
	leaq	.LC13(%rip), %rsi
	jmp	__printf_chk@PLT
.LVL276:
.LBE16789:
.LBE16790:
	.cfi_endproc
.LFE637:
	.size	_Z15test_fmadd_s_49v, .-_Z15test_fmadd_s_49v
	.p2align 4
	.globl	_Z15test_fmadd_s_50v
	.type	_Z15test_fmadd_s_50v, @function
_Z15test_fmadd_s_50v:
.LFB638:
	.loc 2 853 1 is_stmt 1 view -0
	.cfi_startproc
	endbr64
	.loc 2 854 2 view .LVU1074
.LVL277:
	.loc 2 855 2 view .LVU1075
	.loc 2 856 2 view .LVU1076
	.loc 2 857 2 view .LVU1077
.LBB16795:
.LBI16795:
	.loc 2 27 16 view .LVU1078
.LBB16796:
	.loc 2 29 2 view .LVU1079
	.loc 2 30 2 view .LVU1080
.LBE16796:
.LBE16795:
	.loc 2 853 1 is_stmt 0 view .LVU1081
	pushq	%rbp
	.cfi_def_cfa_offset 16
	.cfi_offset 6, -16
.LBB16799:
.LBB16797:
	.loc 2 30 12 view .LVU1082
	xorl	%edi, %edi
.LBE16797:
.LBE16799:
	.loc 2 853 1 view .LVU1083
	movq	%rsp, %rbp
	.cfi_def_cfa_register 6
.LBB16800:
.LBB16798:
	.loc 2 30 12 view .LVU1084
	call	_ZN5riscv10fenv_setrmEi
.LVL278:
	.loc 2 30 18 is_stmt 1 view .LVU1085
	.loc 2 31 2 view .LVU1086
	.loc 2 31 2 is_stmt 0 view .LVU1087
.LBE16798:
.LBE16800:
	.loc 2 858 2 is_stmt 1 view .LVU1088
.LBB16801:
.LBI16801:
	.loc 4 105 1 view .LVU1089
.LBB16802:
	.loc 4 107 3 view .LVU1090
	.loc 4 107 23 is_stmt 0 view .LVU1091
	movl	$1, %edi
	movl	$1, %eax
.LBE16802:
.LBE16801:
	.loc 2 859 1 view .LVU1092
	popq	%rbp
	.cfi_def_cfa 7, 8
.LBB16804:
.LBB16803:
	.loc 4 107 23 view .LVU1093
	movsd	.LC32(%rip), %xmm0
	leaq	.LC13(%rip), %rsi
	jmp	__printf_chk@PLT
.LVL279:
.LBE16803:
.LBE16804:
	.cfi_endproc
.LFE638:
	.size	_Z15test_fmadd_s_50v, .-_Z15test_fmadd_s_50v
	.p2align 4
	.globl	_Z15test_fmadd_s_51v
	.type	_Z15test_fmadd_s_51v, @function
_Z15test_fmadd_s_51v:
.LFB639:
	.loc 2 862 1 is_stmt 1 view -0
	.cfi_startproc
	endbr64
	.loc 2 863 2 view .LVU1095
.LVL280:
	.loc 2 864 2 view .LVU1096
	.loc 2 865 2 view .LVU1097
	.loc 2 866 2 view .LVU1098
.LBB16809:
.LBI16809:
	.loc 2 27 16 view .LVU1099
.LBB16810:
	.loc 2 29 2 view .LVU1100
	.loc 2 30 2 view .LVU1101
.LBE16810:
.LBE16809:
	.loc 2 862 1 is_stmt 0 view .LVU1102
	pushq	%rbp
	.cfi_def_cfa_offset 16
	.cfi_offset 6, -16
.LBB16813:
.LBB16811:
	.loc 2 30 12 view .LVU1103
	xorl	%edi, %edi
.LBE16811:
.LBE16813:
	.loc 2 862 1 view .LVU1104
	movq	%rsp, %rbp
	.cfi_def_cfa_register 6
.LBB16814:
.LBB16812:
	.loc 2 30 12 view .LVU1105
	call	_ZN5riscv10fenv_setrmEi
.LVL281:
	.loc 2 30 18 is_stmt 1 view .LVU1106
	.loc 2 31 2 view .LVU1107
	.loc 2 31 2 is_stmt 0 view .LVU1108
.LBE16812:
.LBE16814:
	.loc 2 867 2 is_stmt 1 view .LVU1109
.LBB16815:
.LBI16815:
	.loc 4 105 1 view .LVU1110
.LBB16816:
	.loc 4 107 3 view .LVU1111
	.loc 4 107 23 is_stmt 0 view .LVU1112
	movl	$1, %edi
	movl	$1, %eax
.LBE16816:
.LBE16815:
	.loc 2 868 1 view .LVU1113
	popq	%rbp
	.cfi_def_cfa 7, 8
.LBB16818:
.LBB16817:
	.loc 4 107 23 view .LVU1114
	movsd	.LC33(%rip), %xmm0
	leaq	.LC13(%rip), %rsi
	jmp	__printf_chk@PLT
.LVL282:
.LBE16817:
.LBE16818:
	.cfi_endproc
.LFE639:
	.size	_Z15test_fmadd_s_51v, .-_Z15test_fmadd_s_51v
	.p2align 4
	.globl	_Z15test_fmadd_s_52v
	.type	_Z15test_fmadd_s_52v, @function
_Z15test_fmadd_s_52v:
.LFB4263:
	.cfi_startproc
	endbr64
	pushq	%rbp
	.cfi_def_cfa_offset 16
	.cfi_offset 6, -16
	xorl	%edi, %edi
	movq	%rsp, %rbp
	.cfi_def_cfa_register 6
	call	_ZN5riscv10fenv_setrmEi
	movl	$1, %edi
	movl	$1, %eax
	popq	%rbp
	.cfi_def_cfa 7, 8
	movsd	.LC27(%rip), %xmm0
	leaq	.LC13(%rip), %rsi
	jmp	__printf_chk@PLT
	.cfi_endproc
.LFE4263:
	.size	_Z15test_fmadd_s_52v, .-_Z15test_fmadd_s_52v
	.p2align 4
	.globl	_Z15test_fmadd_s_53v
	.type	_Z15test_fmadd_s_53v, @function
_Z15test_fmadd_s_53v:
.LFB3109:
	.cfi_startproc
	endbr64
	jmp	_Z14test_fmadd_s_5v
	.cfi_endproc
.LFE3109:
	.size	_Z15test_fmadd_s_53v, .-_Z15test_fmadd_s_53v
	.p2align 4
	.globl	_Z15test_fmadd_s_54v
	.type	_Z15test_fmadd_s_54v, @function
_Z15test_fmadd_s_54v:
.LFB3397:
	.cfi_startproc
	endbr64
	jmp	_Z14test_fmadd_s_6v
	.cfi_endproc
.LFE3397:
	.size	_Z15test_fmadd_s_54v, .-_Z15test_fmadd_s_54v
	.p2align 4
	.globl	_Z15test_fmadd_s_55v
	.type	_Z15test_fmadd_s_55v, @function
_Z15test_fmadd_s_55v:
.LFB643:
	.loc 2 898 1 is_stmt 1 view -0
	.cfi_startproc
	endbr64
	.loc 2 899 2 view .LVU1116
.LVL283:
	.loc 2 900 2 view .LVU1117
	.loc 2 901 2 view .LVU1118
	.loc 2 902 2 view .LVU1119
.LBB16823:
.LBI16823:
	.loc 2 27 16 view .LVU1120
.LBB16824:
	.loc 2 29 2 view .LVU1121
	.loc 2 30 2 view .LVU1122
.LBE16824:
.LBE16823:
	.loc 2 898 1 is_stmt 0 view .LVU1123
	pushq	%rbp
	.cfi_def_cfa_offset 16
	.cfi_offset 6, -16
.LBB16827:
.LBB16825:
	.loc 2 30 12 view .LVU1124
	xorl	%edi, %edi
.LBE16825:
.LBE16827:
	.loc 2 898 1 view .LVU1125
	movq	%rsp, %rbp
	.cfi_def_cfa_register 6
.LBB16828:
.LBB16826:
	.loc 2 30 12 view .LVU1126
	call	_ZN5riscv10fenv_setrmEi
.LVL284:
	.loc 2 30 18 is_stmt 1 view .LVU1127
	.loc 2 31 2 view .LVU1128
	.loc 2 31 2 is_stmt 0 view .LVU1129
.LBE16826:
.LBE16828:
	.loc 2 903 2 is_stmt 1 view .LVU1130
.LBB16829:
.LBI16829:
	.loc 4 105 1 view .LVU1131
.LBB16830:
	.loc 4 107 3 view .LVU1132
	.loc 4 107 23 is_stmt 0 view .LVU1133
	movl	$1, %edi
	movl	$1, %eax
.LBE16830:
.LBE16829:
	.loc 2 904 1 view .LVU1134
	popq	%rbp
	.cfi_def_cfa 7, 8
.LBB16832:
.LBB16831:
	.loc 4 107 23 view .LVU1135
	movsd	.LC11(%rip), %xmm0
	leaq	.LC13(%rip), %rsi
	jmp	__printf_chk@PLT
.LVL285:
.LBE16831:
.LBE16832:
	.cfi_endproc
.LFE643:
	.size	_Z15test_fmadd_s_55v, .-_Z15test_fmadd_s_55v
	.p2align 4
	.globl	_Z15test_fmadd_s_56v
	.type	_Z15test_fmadd_s_56v, @function
_Z15test_fmadd_s_56v:
.LFB644:
	.loc 2 907 1 is_stmt 1 view -0
	.cfi_startproc
	endbr64
	.loc 2 908 2 view .LVU1137
.LVL286:
	.loc 2 909 2 view .LVU1138
	.loc 2 910 2 view .LVU1139
	.loc 2 911 2 view .LVU1140
.LBB16837:
.LBI16837:
	.loc 2 27 16 view .LVU1141
.LBB16838:
	.loc 2 29 2 view .LVU1142
	.loc 2 30 2 view .LVU1143
.LBE16838:
.LBE16837:
	.loc 2 907 1 is_stmt 0 view .LVU1144
	pushq	%rbp
	.cfi_def_cfa_offset 16
	.cfi_offset 6, -16
.LBB16841:
.LBB16839:
	.loc 2 30 12 view .LVU1145
	xorl	%edi, %edi
.LBE16839:
.LBE16841:
	.loc 2 907 1 view .LVU1146
	movq	%rsp, %rbp
	.cfi_def_cfa_register 6
.LBB16842:
.LBB16840:
	.loc 2 30 12 view .LVU1147
	call	_ZN5riscv10fenv_setrmEi
.LVL287:
	.loc 2 30 18 is_stmt 1 view .LVU1148
	.loc 2 31 2 view .LVU1149
	.loc 2 31 2 is_stmt 0 view .LVU1150
.LBE16840:
.LBE16842:
	.loc 2 912 2 is_stmt 1 view .LVU1151
.LBB16843:
.LBI16843:
	.loc 4 105 1 view .LVU1152
.LBB16844:
	.loc 4 107 3 view .LVU1153
	.loc 4 107 23 is_stmt 0 view .LVU1154
	movl	$1, %edi
	movl	$1, %eax
.LBE16844:
.LBE16843:
	.loc 2 913 1 view .LVU1155
	popq	%rbp
	.cfi_def_cfa 7, 8
.LBB16846:
.LBB16845:
	.loc 4 107 23 view .LVU1156
	movsd	.LC34(%rip), %xmm0
	leaq	.LC13(%rip), %rsi
	jmp	__printf_chk@PLT
.LVL288:
.LBE16845:
.LBE16846:
	.cfi_endproc
.LFE644:
	.size	_Z15test_fmadd_s_56v, .-_Z15test_fmadd_s_56v
	.p2align 4
	.globl	_Z15test_fmadd_s_57v
	.type	_Z15test_fmadd_s_57v, @function
_Z15test_fmadd_s_57v:
.LFB645:
	.loc 2 916 1 is_stmt 1 view -0
	.cfi_startproc
	endbr64
	.loc 2 917 2 view .LVU1158
.LVL289:
	.loc 2 918 2 view .LVU1159
	.loc 2 919 2 view .LVU1160
	.loc 2 920 2 view .LVU1161
.LBB16851:
.LBI16851:
	.loc 2 27 16 view .LVU1162
.LBB16852:
	.loc 2 29 2 view .LVU1163
	.loc 2 30 2 view .LVU1164
.LBE16852:
.LBE16851:
	.loc 2 916 1 is_stmt 0 view .LVU1165
	pushq	%rbp
	.cfi_def_cfa_offset 16
	.cfi_offset 6, -16
.LBB16855:
.LBB16853:
	.loc 2 30 12 view .LVU1166
	xorl	%edi, %edi
.LBE16853:
.LBE16855:
	.loc 2 916 1 view .LVU1167
	movq	%rsp, %rbp
	.cfi_def_cfa_register 6
.LBB16856:
.LBB16854:
	.loc 2 30 12 view .LVU1168
	call	_ZN5riscv10fenv_setrmEi
.LVL290:
	.loc 2 30 18 is_stmt 1 view .LVU1169
	.loc 2 31 2 view .LVU1170
	.loc 2 31 2 is_stmt 0 view .LVU1171
.LBE16854:
.LBE16856:
	.loc 2 921 2 is_stmt 1 view .LVU1172
.LBB16857:
.LBI16857:
	.loc 4 105 1 view .LVU1173
.LBB16858:
	.loc 4 107 3 view .LVU1174
	.loc 4 107 23 is_stmt 0 view .LVU1175
	movl	$1, %edi
	movl	$1, %eax
.LBE16858:
.LBE16857:
	.loc 2 922 1 view .LVU1176
	popq	%rbp
	.cfi_def_cfa 7, 8
.LBB16860:
.LBB16859:
	.loc 4 107 23 view .LVU1177
	movsd	.LC35(%rip), %xmm0
	leaq	.LC13(%rip), %rsi
	jmp	__printf_chk@PLT
.LVL291:
.LBE16859:
.LBE16860:
	.cfi_endproc
.LFE645:
	.size	_Z15test_fmadd_s_57v, .-_Z15test_fmadd_s_57v
	.p2align 4
	.globl	_Z15test_fmadd_s_58v
	.type	_Z15test_fmadd_s_58v, @function
_Z15test_fmadd_s_58v:
.LFB4177:
	.cfi_startproc
	endbr64
	pushq	%rbp
	.cfi_def_cfa_offset 16
	.cfi_offset 6, -16
	xorl	%edi, %edi
	movq	%rsp, %rbp
	.cfi_def_cfa_register 6
	call	_ZN5riscv10fenv_setrmEi
	movl	$1, %edi
	movl	$1, %eax
	popq	%rbp
	.cfi_def_cfa 7, 8
	movsd	.LC24(%rip), %xmm0
	leaq	.LC13(%rip), %rsi
	jmp	__printf_chk@PLT
	.cfi_endproc
.LFE4177:
	.size	_Z15test_fmadd_s_58v, .-_Z15test_fmadd_s_58v
	.p2align 4
	.globl	_Z15test_fmadd_s_59v
	.type	_Z15test_fmadd_s_59v, @function
_Z15test_fmadd_s_59v:
.LFB3111:
	.cfi_startproc
	endbr64
	jmp	_Z14test_fmadd_s_5v
	.cfi_endproc
.LFE3111:
	.size	_Z15test_fmadd_s_59v, .-_Z15test_fmadd_s_59v
	.p2align 4
	.globl	_Z15test_fmadd_s_60v
	.type	_Z15test_fmadd_s_60v, @function
_Z15test_fmadd_s_60v:
.LFB3399:
	.cfi_startproc
	endbr64
	jmp	_Z14test_fmadd_s_6v
	.cfi_endproc
.LFE3399:
	.size	_Z15test_fmadd_s_60v, .-_Z15test_fmadd_s_60v
	.p2align 4
	.globl	_Z15test_fmadd_s_61v
	.type	_Z15test_fmadd_s_61v, @function
_Z15test_fmadd_s_61v:
.LFB3113:
	.cfi_startproc
	endbr64
	jmp	_Z14test_fmadd_s_5v
	.cfi_endproc
.LFE3113:
	.size	_Z15test_fmadd_s_61v, .-_Z15test_fmadd_s_61v
	.p2align 4
	.globl	_Z15test_fmadd_s_62v
	.type	_Z15test_fmadd_s_62v, @function
_Z15test_fmadd_s_62v:
.LFB3115:
	.cfi_startproc
	endbr64
	jmp	_Z14test_fmadd_s_5v
	.cfi_endproc
.LFE3115:
	.size	_Z15test_fmadd_s_62v, .-_Z15test_fmadd_s_62v
	.p2align 4
	.globl	_Z15test_fmadd_s_63v
	.type	_Z15test_fmadd_s_63v, @function
_Z15test_fmadd_s_63v:
.LFB3117:
	.cfi_startproc
	endbr64
	jmp	_Z14test_fmadd_s_5v
	.cfi_endproc
.LFE3117:
	.size	_Z15test_fmadd_s_63v, .-_Z15test_fmadd_s_63v
	.p2align 4
	.globl	_Z15test_fmadd_s_64v
	.type	_Z15test_fmadd_s_64v, @function
_Z15test_fmadd_s_64v:
.LFB3119:
	.cfi_startproc
	endbr64
	jmp	_Z14test_fmadd_s_5v
	.cfi_endproc
.LFE3119:
	.size	_Z15test_fmadd_s_64v, .-_Z15test_fmadd_s_64v
	.p2align 4
	.globl	_Z15test_fmadd_s_65v
	.type	_Z15test_fmadd_s_65v, @function
_Z15test_fmadd_s_65v:
.LFB3121:
	.cfi_startproc
	endbr64
	jmp	_Z14test_fmadd_s_5v
	.cfi_endproc
.LFE3121:
	.size	_Z15test_fmadd_s_65v, .-_Z15test_fmadd_s_65v
	.p2align 4
	.globl	_Z15test_fmadd_s_66v
	.type	_Z15test_fmadd_s_66v, @function
_Z15test_fmadd_s_66v:
.LFB3401:
	.cfi_startproc
	endbr64
	jmp	_Z14test_fmadd_s_6v
	.cfi_endproc
.LFE3401:
	.size	_Z15test_fmadd_s_66v, .-_Z15test_fmadd_s_66v
	.p2align 4
	.globl	_Z15test_fmadd_s_67v
	.type	_Z15test_fmadd_s_67v, @function
_Z15test_fmadd_s_67v:
.LFB3403:
	.cfi_startproc
	endbr64
	jmp	_Z14test_fmadd_s_6v
	.cfi_endproc
.LFE3403:
	.size	_Z15test_fmadd_s_67v, .-_Z15test_fmadd_s_67v
	.p2align 4
	.globl	_Z15test_fmadd_s_68v
	.type	_Z15test_fmadd_s_68v, @function
_Z15test_fmadd_s_68v:
.LFB3405:
	.cfi_startproc
	endbr64
	jmp	_Z14test_fmadd_s_6v
	.cfi_endproc
.LFE3405:
	.size	_Z15test_fmadd_s_68v, .-_Z15test_fmadd_s_68v
	.p2align 4
	.globl	_Z15test_fmadd_s_69v
	.type	_Z15test_fmadd_s_69v, @function
_Z15test_fmadd_s_69v:
.LFB3407:
	.cfi_startproc
	endbr64
	jmp	_Z14test_fmadd_s_6v
	.cfi_endproc
.LFE3407:
	.size	_Z15test_fmadd_s_69v, .-_Z15test_fmadd_s_69v
	.p2align 4
	.globl	_Z15test_fmadd_s_70v
	.type	_Z15test_fmadd_s_70v, @function
_Z15test_fmadd_s_70v:
.LFB3409:
	.cfi_startproc
	endbr64
	jmp	_Z14test_fmadd_s_6v
	.cfi_endproc
.LFE3409:
	.size	_Z15test_fmadd_s_70v, .-_Z15test_fmadd_s_70v
	.p2align 4
	.globl	_Z15test_fmadd_s_71v
	.type	_Z15test_fmadd_s_71v, @function
_Z15test_fmadd_s_71v:
.LFB3411:
	.cfi_startproc
	endbr64
	jmp	_Z14test_fmadd_s_6v
	.cfi_endproc
.LFE3411:
	.size	_Z15test_fmadd_s_71v, .-_Z15test_fmadd_s_71v
	.p2align 4
	.globl	_Z15test_fmadd_s_72v
	.type	_Z15test_fmadd_s_72v, @function
_Z15test_fmadd_s_72v:
.LFB3413:
	.cfi_startproc
	endbr64
	jmp	_Z14test_fmadd_s_6v
	.cfi_endproc
.LFE3413:
	.size	_Z15test_fmadd_s_72v, .-_Z15test_fmadd_s_72v
	.p2align 4
	.globl	_Z15test_fmadd_s_73v
	.type	_Z15test_fmadd_s_73v, @function
_Z15test_fmadd_s_73v:
.LFB4161:
	.cfi_startproc
	endbr64
	pushq	%rbp
	.cfi_def_cfa_offset 16
	.cfi_offset 6, -16
	xorl	%edi, %edi
	movq	%rsp, %rbp
	.cfi_def_cfa_register 6
	call	_ZN5riscv10fenv_setrmEi
	movl	$1, %edi
	movl	$1, %eax
	popq	%rbp
	.cfi_def_cfa 7, 8
	movsd	.LC23(%rip), %xmm0
	leaq	.LC13(%rip), %rsi
	jmp	__printf_chk@PLT
	.cfi_endproc
.LFE4161:
	.size	_Z15test_fmadd_s_73v, .-_Z15test_fmadd_s_73v
	.p2align 4
	.globl	_Z15test_fmadd_s_74v
	.type	_Z15test_fmadd_s_74v, @function
_Z15test_fmadd_s_74v:
.LFB4179:
	.cfi_startproc
	endbr64
	pushq	%rbp
	.cfi_def_cfa_offset 16
	.cfi_offset 6, -16
	xorl	%edi, %edi
	movq	%rsp, %rbp
	.cfi_def_cfa_register 6
	call	_ZN5riscv10fenv_setrmEi
	movl	$1, %edi
	movl	$1, %eax
	popq	%rbp
	.cfi_def_cfa 7, 8
	movsd	.LC24(%rip), %xmm0
	leaq	.LC13(%rip), %rsi
	jmp	__printf_chk@PLT
	.cfi_endproc
.LFE4179:
	.size	_Z15test_fmadd_s_74v, .-_Z15test_fmadd_s_74v
	.p2align 4
	.globl	_Z15test_fmadd_s_75v
	.type	_Z15test_fmadd_s_75v, @function
_Z15test_fmadd_s_75v:
.LFB4201:
	.cfi_startproc
	endbr64
	pushq	%rbp
	.cfi_def_cfa_offset 16
	.cfi_offset 6, -16
	xorl	%edi, %edi
	movq	%rsp, %rbp
	.cfi_def_cfa_register 6
	call	_ZN5riscv10fenv_setrmEi
	movl	$1, %edi
	movl	$1, %eax
	popq	%rbp
	.cfi_def_cfa 7, 8
	movsd	.LC25(%rip), %xmm0
	leaq	.LC13(%rip), %rsi
	jmp	__printf_chk@PLT
	.cfi_endproc
.LFE4201:
	.size	_Z15test_fmadd_s_75v, .-_Z15test_fmadd_s_75v
	.p2align 4
	.globl	_Z15test_fmadd_s_76v
	.type	_Z15test_fmadd_s_76v, @function
_Z15test_fmadd_s_76v:
.LFB4213:
	.cfi_startproc
	endbr64
	pushq	%rbp
	.cfi_def_cfa_offset 16
	.cfi_offset 6, -16
	xorl	%edi, %edi
	movq	%rsp, %rbp
	.cfi_def_cfa_register 6
	call	_ZN5riscv10fenv_setrmEi
	pxor	%xmm0, %xmm0
	movl	$1, %edi
	popq	%rbp
	.cfi_def_cfa 7, 8
	leaq	.LC13(%rip), %rsi
	movl	$1, %eax
	jmp	__printf_chk@PLT
	.cfi_endproc
.LFE4213:
	.size	_Z15test_fmadd_s_76v, .-_Z15test_fmadd_s_76v
	.p2align 4
	.globl	_Z15test_fmadd_s_77v
	.type	_Z15test_fmadd_s_77v, @function
_Z15test_fmadd_s_77v:
.LFB3123:
	.cfi_startproc
	endbr64
	jmp	_Z14test_fmadd_s_5v
	.cfi_endproc
.LFE3123:
	.size	_Z15test_fmadd_s_77v, .-_Z15test_fmadd_s_77v
	.p2align 4
	.globl	_Z15test_fmadd_s_78v
	.type	_Z15test_fmadd_s_78v, @function
_Z15test_fmadd_s_78v:
.LFB3415:
	.cfi_startproc
	endbr64
	jmp	_Z14test_fmadd_s_6v
	.cfi_endproc
.LFE3415:
	.size	_Z15test_fmadd_s_78v, .-_Z15test_fmadd_s_78v
	.p2align 4
	.globl	_Z15test_fmadd_s_79v
	.type	_Z15test_fmadd_s_79v, @function
_Z15test_fmadd_s_79v:
.LFB4565:
	.cfi_startproc
	endbr64
	pushq	%rbp
	.cfi_def_cfa_offset 16
	.cfi_offset 6, -16
	xorl	%edi, %edi
	movq	%rsp, %rbp
	.cfi_def_cfa_register 6
	call	_ZN5riscv10fenv_setrmEi
	movl	$1, %edi
	movl	$1, %eax
	popq	%rbp
	.cfi_def_cfa 7, 8
	movsd	.LC31(%rip), %xmm0
	leaq	.LC13(%rip), %rsi
	jmp	__printf_chk@PLT
	.cfi_endproc
.LFE4565:
	.size	_Z15test_fmadd_s_79v, .-_Z15test_fmadd_s_79v
	.p2align 4
	.globl	_Z15test_fmadd_s_80v
	.type	_Z15test_fmadd_s_80v, @function
_Z15test_fmadd_s_80v:
.LFB4593:
	.cfi_startproc
	endbr64
	pushq	%rbp
	.cfi_def_cfa_offset 16
	.cfi_offset 6, -16
	xorl	%edi, %edi
	movq	%rsp, %rbp
	.cfi_def_cfa_register 6
	call	_ZN5riscv10fenv_setrmEi
	movl	$1, %edi
	movl	$1, %eax
	popq	%rbp
	.cfi_def_cfa 7, 8
	movsd	.LC32(%rip), %xmm0
	leaq	.LC13(%rip), %rsi
	jmp	__printf_chk@PLT
	.cfi_endproc
.LFE4593:
	.size	_Z15test_fmadd_s_80v, .-_Z15test_fmadd_s_80v
	.p2align 4
	.globl	_Z15test_fmadd_s_81v
	.type	_Z15test_fmadd_s_81v, @function
_Z15test_fmadd_s_81v:
.LFB4613:
	.cfi_startproc
	endbr64
	pushq	%rbp
	.cfi_def_cfa_offset 16
	.cfi_offset 6, -16
	xorl	%edi, %edi
	movq	%rsp, %rbp
	.cfi_def_cfa_register 6
	call	_ZN5riscv10fenv_setrmEi
	movl	$1, %edi
	movl	$1, %eax
	popq	%rbp
	.cfi_def_cfa 7, 8
	movsd	.LC33(%rip), %xmm0
	leaq	.LC13(%rip), %rsi
	jmp	__printf_chk@PLT
	.cfi_endproc
.LFE4613:
	.size	_Z15test_fmadd_s_81v, .-_Z15test_fmadd_s_81v
	.p2align 4
	.globl	_Z15test_fmadd_s_82v
	.type	_Z15test_fmadd_s_82v, @function
_Z15test_fmadd_s_82v:
.LFB4265:
	.cfi_startproc
	endbr64
	pushq	%rbp
	.cfi_def_cfa_offset 16
	.cfi_offset 6, -16
	xorl	%edi, %edi
	movq	%rsp, %rbp
	.cfi_def_cfa_register 6
	call	_ZN5riscv10fenv_setrmEi
	movl	$1, %edi
	movl	$1, %eax
	popq	%rbp
	.cfi_def_cfa 7, 8
	movsd	.LC27(%rip), %xmm0
	leaq	.LC13(%rip), %rsi
	jmp	__printf_chk@PLT
	.cfi_endproc
.LFE4265:
	.size	_Z15test_fmadd_s_82v, .-_Z15test_fmadd_s_82v
	.p2align 4
	.globl	_Z15test_fmadd_s_83v
	.type	_Z15test_fmadd_s_83v, @function
_Z15test_fmadd_s_83v:
.LFB3125:
	.cfi_startproc
	endbr64
	jmp	_Z14test_fmadd_s_5v
	.cfi_endproc
.LFE3125:
	.size	_Z15test_fmadd_s_83v, .-_Z15test_fmadd_s_83v
	.p2align 4
	.globl	_Z15test_fmadd_s_84v
	.type	_Z15test_fmadd_s_84v, @function
_Z15test_fmadd_s_84v:
.LFB3417:
	.cfi_startproc
	endbr64
	jmp	_Z14test_fmadd_s_6v
	.cfi_endproc
.LFE3417:
	.size	_Z15test_fmadd_s_84v, .-_Z15test_fmadd_s_84v
	.p2align 4
	.globl	_Z15test_fmadd_s_85v
	.type	_Z15test_fmadd_s_85v, @function
_Z15test_fmadd_s_85v:
.LFB673:
	.loc 2 1168 1 is_stmt 1 view -0
	.cfi_startproc
	endbr64
	.loc 2 1169 2 view .LVU1179
.LVL292:
	.loc 2 1170 2 view .LVU1180
	.loc 2 1171 2 view .LVU1181
	.loc 2 1172 2 view .LVU1182
.LBB16865:
.LBI16865:
	.loc 2 27 16 view .LVU1183
.LBB16866:
	.loc 2 29 2 view .LVU1184
	.loc 2 30 2 view .LVU1185
.LBE16866:
.LBE16865:
	.loc 2 1168 1 is_stmt 0 view .LVU1186
	pushq	%rbp
	.cfi_def_cfa_offset 16
	.cfi_offset 6, -16
.LBB16869:
.LBB16867:
	.loc 2 30 12 view .LVU1187
	xorl	%edi, %edi
.LBE16867:
.LBE16869:
	.loc 2 1168 1 view .LVU1188
	movq	%rsp, %rbp
	.cfi_def_cfa_register 6
.LBB16870:
.LBB16868:
	.loc 2 30 12 view .LVU1189
	call	_ZN5riscv10fenv_setrmEi
.LVL293:
	.loc 2 30 18 is_stmt 1 view .LVU1190
	.loc 2 31 2 view .LVU1191
	.loc 2 31 2 is_stmt 0 view .LVU1192
.LBE16868:
.LBE16870:
	.loc 2 1173 2 is_stmt 1 view .LVU1193
.LBB16871:
.LBI16871:
	.loc 4 105 1 view .LVU1194
.LBB16872:
	.loc 4 107 3 view .LVU1195
	.loc 4 107 23 is_stmt 0 view .LVU1196
	movl	$1, %edi
	movl	$1, %eax
.LBE16872:
.LBE16871:
	.loc 2 1174 1 view .LVU1197
	popq	%rbp
	.cfi_def_cfa 7, 8
.LBB16874:
.LBB16873:
	.loc 4 107 23 view .LVU1198
	movsd	.LC36(%rip), %xmm0
	leaq	.LC13(%rip), %rsi
	jmp	__printf_chk@PLT
.LVL294:
.LBE16873:
.LBE16874:
	.cfi_endproc
.LFE673:
	.size	_Z15test_fmadd_s_85v, .-_Z15test_fmadd_s_85v
	.p2align 4
	.globl	_Z15test_fmadd_s_86v
	.type	_Z15test_fmadd_s_86v, @function
_Z15test_fmadd_s_86v:
.LFB674:
	.loc 2 1177 1 is_stmt 1 view -0
	.cfi_startproc
	endbr64
	.loc 2 1178 2 view .LVU1200
.LVL295:
	.loc 2 1179 2 view .LVU1201
	.loc 2 1180 2 view .LVU1202
	.loc 2 1181 2 view .LVU1203
.LBB16879:
.LBI16879:
	.loc 2 27 16 view .LVU1204
.LBB16880:
	.loc 2 29 2 view .LVU1205
	.loc 2 30 2 view .LVU1206
.LBE16880:
.LBE16879:
	.loc 2 1177 1 is_stmt 0 view .LVU1207
	pushq	%rbp
	.cfi_def_cfa_offset 16
	.cfi_offset 6, -16
.LBB16883:
.LBB16881:
	.loc 2 30 12 view .LVU1208
	xorl	%edi, %edi
.LBE16881:
.LBE16883:
	.loc 2 1177 1 view .LVU1209
	movq	%rsp, %rbp
	.cfi_def_cfa_register 6
.LBB16884:
.LBB16882:
	.loc 2 30 12 view .LVU1210
	call	_ZN5riscv10fenv_setrmEi
.LVL296:
	.loc 2 30 18 is_stmt 1 view .LVU1211
	.loc 2 31 2 view .LVU1212
	.loc 2 31 2 is_stmt 0 view .LVU1213
.LBE16882:
.LBE16884:
	.loc 2 1182 2 is_stmt 1 view .LVU1214
.LBB16885:
.LBI16885:
	.loc 4 105 1 view .LVU1215
.LBB16886:
	.loc 4 107 3 view .LVU1216
	.loc 4 107 23 is_stmt 0 view .LVU1217
	movl	$1, %edi
	movl	$1, %eax
.LBE16886:
.LBE16885:
	.loc 2 1183 1 view .LVU1218
	popq	%rbp
	.cfi_def_cfa 7, 8
.LBB16888:
.LBB16887:
	.loc 4 107 23 view .LVU1219
	movsd	.LC37(%rip), %xmm0
	leaq	.LC13(%rip), %rsi
	jmp	__printf_chk@PLT
.LVL297:
.LBE16887:
.LBE16888:
	.cfi_endproc
.LFE674:
	.size	_Z15test_fmadd_s_86v, .-_Z15test_fmadd_s_86v
	.p2align 4
	.globl	_Z15test_fmadd_s_87v
	.type	_Z15test_fmadd_s_87v, @function
_Z15test_fmadd_s_87v:
.LFB675:
	.loc 2 1186 1 is_stmt 1 view -0
	.cfi_startproc
	endbr64
	.loc 2 1187 2 view .LVU1221
.LVL298:
	.loc 2 1188 2 view .LVU1222
	.loc 2 1189 2 view .LVU1223
	.loc 2 1190 2 view .LVU1224
.LBB16889:
.LBI16889:
	.loc 2 27 16 view .LVU1225
.LBB16890:
	.loc 2 29 2 view .LVU1226
	.loc 2 30 2 view .LVU1227
.LBE16890:
.LBE16889:
	.loc 2 1186 1 is_stmt 0 view .LVU1228
	pushq	%rbp
	.cfi_def_cfa_offset 16
	.cfi_offset 6, -16
.LBB16893:
.LBB16891:
	.loc 2 30 12 view .LVU1229
	xorl	%edi, %edi
.LBE16891:
.LBE16893:
	.loc 2 1186 1 view .LVU1230
	movq	%rsp, %rbp
	.cfi_def_cfa_register 6
.LBB16894:
.LBB16892:
	.loc 2 30 12 view .LVU1231
	call	_ZN5riscv10fenv_setrmEi
.LVL299:
	.loc 2 30 18 is_stmt 1 view .LVU1232
	.loc 2 31 2 view .LVU1233
	.loc 2 31 2 is_stmt 0 view .LVU1234
.LBE16892:
.LBE16894:
	.loc 2 1191 2 is_stmt 1 view .LVU1235
.LBB16895:
.LBI16895:
	.loc 4 105 1 view .LVU1236
.LBB16896:
	.loc 4 107 3 view .LVU1237
	.loc 4 107 23 is_stmt 0 view .LVU1238
	movl	$1, %edi
	movl	$1, %eax
.LBE16896:
.LBE16895:
	.loc 2 1192 1 view .LVU1239
	popq	%rbp
	.cfi_def_cfa 7, 8
.LBB16898:
.LBB16897:
	.loc 4 107 23 view .LVU1240
	movsd	.LC38(%rip), %xmm0
	leaq	.LC13(%rip), %rsi
	jmp	__printf_chk@PLT
.LVL300:
.LBE16897:
.LBE16898:
	.cfi_endproc
.LFE675:
	.size	_Z15test_fmadd_s_87v, .-_Z15test_fmadd_s_87v
	.p2align 4
	.globl	_Z15test_fmadd_s_88v
	.type	_Z15test_fmadd_s_88v, @function
_Z15test_fmadd_s_88v:
.LFB676:
	.loc 2 1195 1 is_stmt 1 view -0
	.cfi_startproc
	endbr64
	.loc 2 1196 2 view .LVU1242
.LVL301:
	.loc 2 1197 2 view .LVU1243
	.loc 2 1198 2 view .LVU1244
	.loc 2 1199 2 view .LVU1245
.LBB16899:
.LBI16899:
	.loc 2 27 16 view .LVU1246
.LBB16900:
	.loc 2 29 2 view .LVU1247
	.loc 2 30 2 view .LVU1248
.LBE16900:
.LBE16899:
	.loc 2 1195 1 is_stmt 0 view .LVU1249
	pushq	%rbp
	.cfi_def_cfa_offset 16
	.cfi_offset 6, -16
.LBB16903:
.LBB16901:
	.loc 2 30 12 view .LVU1250
	xorl	%edi, %edi
.LBE16901:
.LBE16903:
	.loc 2 1195 1 view .LVU1251
	movq	%rsp, %rbp
	.cfi_def_cfa_register 6
.LBB16904:
.LBB16902:
	.loc 2 30 12 view .LVU1252
	call	_ZN5riscv10fenv_setrmEi
.LVL302:
	.loc 2 30 18 is_stmt 1 view .LVU1253
	.loc 2 31 2 view .LVU1254
	.loc 2 31 2 is_stmt 0 view .LVU1255
.LBE16902:
.LBE16904:
	.loc 2 1200 2 is_stmt 1 view .LVU1256
.LBB16905:
.LBI16905:
	.loc 4 105 1 view .LVU1257
.LBB16906:
	.loc 4 107 3 view .LVU1258
	.loc 4 107 23 is_stmt 0 view .LVU1259
	movl	$1, %edi
	movl	$1, %eax
.LBE16906:
.LBE16905:
	.loc 2 1201 1 view .LVU1260
	popq	%rbp
	.cfi_def_cfa 7, 8
.LBB16908:
.LBB16907:
	.loc 4 107 23 view .LVU1261
	movsd	.LC39(%rip), %xmm0
	leaq	.LC13(%rip), %rsi
	jmp	__printf_chk@PLT
.LVL303:
.LBE16907:
.LBE16908:
	.cfi_endproc
.LFE676:
	.size	_Z15test_fmadd_s_88v, .-_Z15test_fmadd_s_88v
	.p2align 4
	.globl	_Z15test_fmadd_s_89v
	.type	_Z15test_fmadd_s_89v, @function
_Z15test_fmadd_s_89v:
.LFB3127:
	.cfi_startproc
	endbr64
	jmp	_Z14test_fmadd_s_5v
	.cfi_endproc
.LFE3127:
	.size	_Z15test_fmadd_s_89v, .-_Z15test_fmadd_s_89v
	.p2align 4
	.globl	_Z15test_fmadd_s_90v
	.type	_Z15test_fmadd_s_90v, @function
_Z15test_fmadd_s_90v:
.LFB3419:
	.cfi_startproc
	endbr64
	jmp	_Z14test_fmadd_s_6v
	.cfi_endproc
.LFE3419:
	.size	_Z15test_fmadd_s_90v, .-_Z15test_fmadd_s_90v
	.p2align 4
	.globl	_Z15test_fmadd_s_91v
	.type	_Z15test_fmadd_s_91v, @function
_Z15test_fmadd_s_91v:
.LFB679:
	.loc 2 1222 1 is_stmt 1 view -0
	.cfi_startproc
	endbr64
	.loc 2 1223 2 view .LVU1263
.LVL304:
	.loc 2 1224 2 view .LVU1264
	.loc 2 1225 2 view .LVU1265
	.loc 2 1226 2 view .LVU1266
.LBB16913:
.LBI16913:
	.loc 2 27 16 view .LVU1267
.LBB16914:
	.loc 2 29 2 view .LVU1268
	.loc 2 30 2 view .LVU1269
.LBE16914:
.LBE16913:
	.loc 2 1222 1 is_stmt 0 view .LVU1270
	pushq	%rbp
	.cfi_def_cfa_offset 16
	.cfi_offset 6, -16
.LBB16917:
.LBB16915:
	.loc 2 30 12 view .LVU1271
	xorl	%edi, %edi
.LBE16915:
.LBE16917:
	.loc 2 1222 1 view .LVU1272
	movq	%rsp, %rbp
	.cfi_def_cfa_register 6
.LBB16918:
.LBB16916:
	.loc 2 30 12 view .LVU1273
	call	_ZN5riscv10fenv_setrmEi
.LVL305:
	.loc 2 30 18 is_stmt 1 view .LVU1274
	.loc 2 31 2 view .LVU1275
	.loc 2 31 2 is_stmt 0 view .LVU1276
.LBE16916:
.LBE16918:
	.loc 2 1227 2 is_stmt 1 view .LVU1277
.LBB16919:
.LBI16919:
	.loc 4 105 1 view .LVU1278
.LBB16920:
	.loc 4 107 3 view .LVU1279
	.loc 4 107 23 is_stmt 0 view .LVU1280
	movl	$1, %edi
	movl	$1, %eax
.LBE16920:
.LBE16919:
	.loc 2 1228 1 view .LVU1281
	popq	%rbp
	.cfi_def_cfa 7, 8
.LBB16922:
.LBB16921:
	.loc 4 107 23 view .LVU1282
	movsd	.LC40(%rip), %xmm0
	leaq	.LC13(%rip), %rsi
	jmp	__printf_chk@PLT
.LVL306:
.LBE16921:
.LBE16922:
	.cfi_endproc
.LFE679:
	.size	_Z15test_fmadd_s_91v, .-_Z15test_fmadd_s_91v
	.p2align 4
	.globl	_Z15test_fmadd_s_92v
	.type	_Z15test_fmadd_s_92v, @function
_Z15test_fmadd_s_92v:
.LFB680:
	.loc 2 1231 1 is_stmt 1 view -0
	.cfi_startproc
	endbr64
	.loc 2 1232 2 view .LVU1284
.LVL307:
	.loc 2 1233 2 view .LVU1285
	.loc 2 1234 2 view .LVU1286
	.loc 2 1235 2 view .LVU1287
.LBB16927:
.LBI16927:
	.loc 2 27 16 view .LVU1288
.LBB16928:
	.loc 2 29 2 view .LVU1289
	.loc 2 30 2 view .LVU1290
.LBE16928:
.LBE16927:
	.loc 2 1231 1 is_stmt 0 view .LVU1291
	pushq	%rbp
	.cfi_def_cfa_offset 16
	.cfi_offset 6, -16
.LBB16931:
.LBB16929:
	.loc 2 30 12 view .LVU1292
	xorl	%edi, %edi
.LBE16929:
.LBE16931:
	.loc 2 1231 1 view .LVU1293
	movq	%rsp, %rbp
	.cfi_def_cfa_register 6
.LBB16932:
.LBB16930:
	.loc 2 30 12 view .LVU1294
	call	_ZN5riscv10fenv_setrmEi
.LVL308:
	.loc 2 30 18 is_stmt 1 view .LVU1295
	.loc 2 31 2 view .LVU1296
	.loc 2 31 2 is_stmt 0 view .LVU1297
.LBE16930:
.LBE16932:
	.loc 2 1236 2 is_stmt 1 view .LVU1298
.LBB16933:
.LBI16933:
	.loc 4 105 1 view .LVU1299
.LBB16934:
	.loc 4 107 3 view .LVU1300
	.loc 4 107 23 is_stmt 0 view .LVU1301
	movl	$1, %edi
	movl	$1, %eax
.LBE16934:
.LBE16933:
	.loc 2 1237 1 view .LVU1302
	popq	%rbp
	.cfi_def_cfa 7, 8
.LBB16936:
.LBB16935:
	.loc 4 107 23 view .LVU1303
	movsd	.LC41(%rip), %xmm0
	leaq	.LC13(%rip), %rsi
	jmp	__printf_chk@PLT
.LVL309:
.LBE16935:
.LBE16936:
	.cfi_endproc
.LFE680:
	.size	_Z15test_fmadd_s_92v, .-_Z15test_fmadd_s_92v
	.p2align 4
	.globl	_Z15test_fmadd_s_93v
	.type	_Z15test_fmadd_s_93v, @function
_Z15test_fmadd_s_93v:
.LFB681:
	.loc 2 1240 1 is_stmt 1 view -0
	.cfi_startproc
	endbr64
	.loc 2 1241 2 view .LVU1305
.LVL310:
	.loc 2 1242 2 view .LVU1306
	.loc 2 1243 2 view .LVU1307
	.loc 2 1244 2 view .LVU1308
.LBB16941:
.LBI16941:
	.loc 2 27 16 view .LVU1309
.LBB16942:
	.loc 2 29 2 view .LVU1310
	.loc 2 30 2 view .LVU1311
.LBE16942:
.LBE16941:
	.loc 2 1240 1 is_stmt 0 view .LVU1312
	pushq	%rbp
	.cfi_def_cfa_offset 16
	.cfi_offset 6, -16
.LBB16945:
.LBB16943:
	.loc 2 30 12 view .LVU1313
	xorl	%edi, %edi
.LBE16943:
.LBE16945:
	.loc 2 1240 1 view .LVU1314
	movq	%rsp, %rbp
	.cfi_def_cfa_register 6
.LBB16946:
.LBB16944:
	.loc 2 30 12 view .LVU1315
	call	_ZN5riscv10fenv_setrmEi
.LVL311:
	.loc 2 30 18 is_stmt 1 view .LVU1316
	.loc 2 31 2 view .LVU1317
	.loc 2 31 2 is_stmt 0 view .LVU1318
.LBE16944:
.LBE16946:
	.loc 2 1245 2 is_stmt 1 view .LVU1319
.LBB16947:
.LBI16947:
	.loc 4 105 1 view .LVU1320
.LBB16948:
	.loc 4 107 3 view .LVU1321
	.loc 4 107 23 is_stmt 0 view .LVU1322
	movl	$1, %edi
	movl	$1, %eax
.LBE16948:
.LBE16947:
	.loc 2 1246 1 view .LVU1323
	popq	%rbp
	.cfi_def_cfa 7, 8
.LBB16950:
.LBB16949:
	.loc 4 107 23 view .LVU1324
	movsd	.LC42(%rip), %xmm0
	leaq	.LC13(%rip), %rsi
	jmp	__printf_chk@PLT
.LVL312:
.LBE16949:
.LBE16950:
	.cfi_endproc
.LFE681:
	.size	_Z15test_fmadd_s_93v, .-_Z15test_fmadd_s_93v
	.p2align 4
	.globl	_Z15test_fmadd_s_94v
	.type	_Z15test_fmadd_s_94v, @function
_Z15test_fmadd_s_94v:
.LFB682:
	.loc 2 1249 1 is_stmt 1 view -0
	.cfi_startproc
	endbr64
	.loc 2 1250 2 view .LVU1326
.LVL313:
	.loc 2 1251 2 view .LVU1327
	.loc 2 1252 2 view .LVU1328
	.loc 2 1253 2 view .LVU1329
.LBB16955:
.LBI16955:
	.loc 2 27 16 view .LVU1330
.LBB16956:
	.loc 2 29 2 view .LVU1331
	.loc 2 30 2 view .LVU1332
.LBE16956:
.LBE16955:
	.loc 2 1249 1 is_stmt 0 view .LVU1333
	pushq	%rbp
	.cfi_def_cfa_offset 16
	.cfi_offset 6, -16
.LBB16959:
.LBB16957:
	.loc 2 30 12 view .LVU1334
	xorl	%edi, %edi
.LBE16957:
.LBE16959:
	.loc 2 1249 1 view .LVU1335
	movq	%rsp, %rbp
	.cfi_def_cfa_register 6
.LBB16960:
.LBB16958:
	.loc 2 30 12 view .LVU1336
	call	_ZN5riscv10fenv_setrmEi
.LVL314:
	.loc 2 30 18 is_stmt 1 view .LVU1337
	.loc 2 31 2 view .LVU1338
	.loc 2 31 2 is_stmt 0 view .LVU1339
.LBE16958:
.LBE16960:
	.loc 2 1254 2 is_stmt 1 view .LVU1340
.LBB16961:
.LBI16961:
	.loc 4 105 1 view .LVU1341
.LBB16962:
	.loc 4 107 3 view .LVU1342
	.loc 4 107 23 is_stmt 0 view .LVU1343
	movl	$1, %edi
	movl	$1, %eax
.LBE16962:
.LBE16961:
	.loc 2 1255 1 view .LVU1344
	popq	%rbp
	.cfi_def_cfa 7, 8
.LBB16964:
.LBB16963:
	.loc 4 107 23 view .LVU1345
	movsd	.LC43(%rip), %xmm0
	leaq	.LC13(%rip), %rsi
	jmp	__printf_chk@PLT
.LVL315:
.LBE16963:
.LBE16964:
	.cfi_endproc
.LFE682:
	.size	_Z15test_fmadd_s_94v, .-_Z15test_fmadd_s_94v
	.p2align 4
	.globl	_Z15test_fmadd_s_95v
	.type	_Z15test_fmadd_s_95v, @function
_Z15test_fmadd_s_95v:
.LFB3129:
	.cfi_startproc
	endbr64
	jmp	_Z14test_fmadd_s_5v
	.cfi_endproc
.LFE3129:
	.size	_Z15test_fmadd_s_95v, .-_Z15test_fmadd_s_95v
	.p2align 4
	.globl	_Z15test_fmadd_s_96v
	.type	_Z15test_fmadd_s_96v, @function
_Z15test_fmadd_s_96v:
.LFB3421:
	.cfi_startproc
	endbr64
	jmp	_Z14test_fmadd_s_6v
	.cfi_endproc
.LFE3421:
	.size	_Z15test_fmadd_s_96v, .-_Z15test_fmadd_s_96v
	.p2align 4
	.globl	_Z15test_fmadd_s_97v
	.type	_Z15test_fmadd_s_97v, @function
_Z15test_fmadd_s_97v:
.LFB3131:
	.cfi_startproc
	endbr64
	jmp	_Z14test_fmadd_s_5v
	.cfi_endproc
.LFE3131:
	.size	_Z15test_fmadd_s_97v, .-_Z15test_fmadd_s_97v
	.p2align 4
	.globl	_Z15test_fmadd_s_98v
	.type	_Z15test_fmadd_s_98v, @function
_Z15test_fmadd_s_98v:
.LFB3133:
	.cfi_startproc
	endbr64
	jmp	_Z14test_fmadd_s_5v
	.cfi_endproc
.LFE3133:
	.size	_Z15test_fmadd_s_98v, .-_Z15test_fmadd_s_98v
	.p2align 4
	.globl	_Z15test_fmadd_s_99v
	.type	_Z15test_fmadd_s_99v, @function
_Z15test_fmadd_s_99v:
.LFB3135:
	.cfi_startproc
	endbr64
	jmp	_Z14test_fmadd_s_5v
	.cfi_endproc
.LFE3135:
	.size	_Z15test_fmadd_s_99v, .-_Z15test_fmadd_s_99v
	.p2align 4
	.globl	_Z16test_fmadd_s_100v
	.type	_Z16test_fmadd_s_100v, @function
_Z16test_fmadd_s_100v:
.LFB3137:
	.cfi_startproc
	endbr64
	jmp	_Z14test_fmadd_s_5v
	.cfi_endproc
.LFE3137:
	.size	_Z16test_fmadd_s_100v, .-_Z16test_fmadd_s_100v
	.p2align 4
	.globl	_Z16test_fmadd_s_101v
	.type	_Z16test_fmadd_s_101v, @function
_Z16test_fmadd_s_101v:
.LFB3139:
	.cfi_startproc
	endbr64
	jmp	_Z14test_fmadd_s_5v
	.cfi_endproc
.LFE3139:
	.size	_Z16test_fmadd_s_101v, .-_Z16test_fmadd_s_101v
	.p2align 4
	.globl	_Z16test_fmadd_s_102v
	.type	_Z16test_fmadd_s_102v, @function
_Z16test_fmadd_s_102v:
.LFB3423:
	.cfi_startproc
	endbr64
	jmp	_Z14test_fmadd_s_6v
	.cfi_endproc
.LFE3423:
	.size	_Z16test_fmadd_s_102v, .-_Z16test_fmadd_s_102v
	.p2align 4
	.globl	_Z16test_fmadd_s_103v
	.type	_Z16test_fmadd_s_103v, @function
_Z16test_fmadd_s_103v:
.LFB3425:
	.cfi_startproc
	endbr64
	jmp	_Z14test_fmadd_s_6v
	.cfi_endproc
.LFE3425:
	.size	_Z16test_fmadd_s_103v, .-_Z16test_fmadd_s_103v
	.p2align 4
	.globl	_Z16test_fmadd_s_104v
	.type	_Z16test_fmadd_s_104v, @function
_Z16test_fmadd_s_104v:
.LFB3427:
	.cfi_startproc
	endbr64
	jmp	_Z14test_fmadd_s_6v
	.cfi_endproc
.LFE3427:
	.size	_Z16test_fmadd_s_104v, .-_Z16test_fmadd_s_104v
	.p2align 4
	.globl	_Z16test_fmadd_s_105v
	.type	_Z16test_fmadd_s_105v, @function
_Z16test_fmadd_s_105v:
.LFB3429:
	.cfi_startproc
	endbr64
	jmp	_Z14test_fmadd_s_6v
	.cfi_endproc
.LFE3429:
	.size	_Z16test_fmadd_s_105v, .-_Z16test_fmadd_s_105v
	.p2align 4
	.globl	_Z16test_fmadd_s_106v
	.type	_Z16test_fmadd_s_106v, @function
_Z16test_fmadd_s_106v:
.LFB3431:
	.cfi_startproc
	endbr64
	jmp	_Z14test_fmadd_s_6v
	.cfi_endproc
.LFE3431:
	.size	_Z16test_fmadd_s_106v, .-_Z16test_fmadd_s_106v
	.p2align 4
	.globl	_Z16test_fmadd_s_107v
	.type	_Z16test_fmadd_s_107v, @function
_Z16test_fmadd_s_107v:
.LFB3433:
	.cfi_startproc
	endbr64
	jmp	_Z14test_fmadd_s_6v
	.cfi_endproc
.LFE3433:
	.size	_Z16test_fmadd_s_107v, .-_Z16test_fmadd_s_107v
	.p2align 4
	.globl	_Z16test_fmadd_s_108v
	.type	_Z16test_fmadd_s_108v, @function
_Z16test_fmadd_s_108v:
.LFB3435:
	.cfi_startproc
	endbr64
	jmp	_Z14test_fmadd_s_6v
	.cfi_endproc
.LFE3435:
	.size	_Z16test_fmadd_s_108v, .-_Z16test_fmadd_s_108v
	.p2align 4
	.globl	_Z16test_fmadd_s_109v
	.type	_Z16test_fmadd_s_109v, @function
_Z16test_fmadd_s_109v:
.LFB4249:
	.cfi_startproc
	endbr64
	pushq	%rbp
	.cfi_def_cfa_offset 16
	.cfi_offset 6, -16
	xorl	%edi, %edi
	movq	%rsp, %rbp
	.cfi_def_cfa_register 6
	call	_ZN5riscv10fenv_setrmEi
	movl	$1, %edi
	movl	$1, %eax
	popq	%rbp
	.cfi_def_cfa 7, 8
	movsd	.LC26(%rip), %xmm0
	leaq	.LC13(%rip), %rsi
	jmp	__printf_chk@PLT
	.cfi_endproc
.LFE4249:
	.size	_Z16test_fmadd_s_109v, .-_Z16test_fmadd_s_109v
	.p2align 4
	.globl	_Z16test_fmadd_s_110v
	.type	_Z16test_fmadd_s_110v, @function
_Z16test_fmadd_s_110v:
.LFB4267:
	.cfi_startproc
	endbr64
	pushq	%rbp
	.cfi_def_cfa_offset 16
	.cfi_offset 6, -16
	xorl	%edi, %edi
	movq	%rsp, %rbp
	.cfi_def_cfa_register 6
	call	_ZN5riscv10fenv_setrmEi
	movl	$1, %edi
	movl	$1, %eax
	popq	%rbp
	.cfi_def_cfa 7, 8
	movsd	.LC27(%rip), %xmm0
	leaq	.LC13(%rip), %rsi
	jmp	__printf_chk@PLT
	.cfi_endproc
.LFE4267:
	.size	_Z16test_fmadd_s_110v, .-_Z16test_fmadd_s_110v
	.p2align 4
	.globl	_Z16test_fmadd_s_111v
	.type	_Z16test_fmadd_s_111v, @function
_Z16test_fmadd_s_111v:
.LFB4299:
	.cfi_startproc
	endbr64
	pushq	%rbp
	.cfi_def_cfa_offset 16
	.cfi_offset 6, -16
	xorl	%edi, %edi
	movq	%rsp, %rbp
	.cfi_def_cfa_register 6
	call	_ZN5riscv10fenv_setrmEi
	movl	$1, %edi
	movl	$1, %eax
	popq	%rbp
	.cfi_def_cfa 7, 8
	movsd	.LC28(%rip), %xmm0
	leaq	.LC13(%rip), %rsi
	jmp	__printf_chk@PLT
	.cfi_endproc
.LFE4299:
	.size	_Z16test_fmadd_s_111v, .-_Z16test_fmadd_s_111v
	.p2align 4
	.globl	_Z16test_fmadd_s_112v
	.type	_Z16test_fmadd_s_112v, @function
_Z16test_fmadd_s_112v:
.LFB4315:
	.cfi_startproc
	endbr64
	pushq	%rbp
	.cfi_def_cfa_offset 16
	.cfi_offset 6, -16
	xorl	%edi, %edi
	movq	%rsp, %rbp
	.cfi_def_cfa_register 6
	call	_ZN5riscv10fenv_setrmEi
	movl	$1, %edi
	movl	$1, %eax
	popq	%rbp
	.cfi_def_cfa 7, 8
	movsd	.LC29(%rip), %xmm0
	leaq	.LC13(%rip), %rsi
	jmp	__printf_chk@PLT
	.cfi_endproc
.LFE4315:
	.size	_Z16test_fmadd_s_112v, .-_Z16test_fmadd_s_112v
	.p2align 4
	.globl	_Z16test_fmadd_s_113v
	.type	_Z16test_fmadd_s_113v, @function
_Z16test_fmadd_s_113v:
.LFB3141:
	.cfi_startproc
	endbr64
	jmp	_Z14test_fmadd_s_5v
	.cfi_endproc
.LFE3141:
	.size	_Z16test_fmadd_s_113v, .-_Z16test_fmadd_s_113v
	.p2align 4
	.globl	_Z16test_fmadd_s_114v
	.type	_Z16test_fmadd_s_114v, @function
_Z16test_fmadd_s_114v:
.LFB3437:
	.cfi_startproc
	endbr64
	jmp	_Z14test_fmadd_s_6v
	.cfi_endproc
.LFE3437:
	.size	_Z16test_fmadd_s_114v, .-_Z16test_fmadd_s_114v
	.p2align 4
	.globl	_Z16test_fmadd_s_115v
	.type	_Z16test_fmadd_s_115v, @function
_Z16test_fmadd_s_115v:
.LFB4633:
	.cfi_startproc
	endbr64
	pushq	%rbp
	.cfi_def_cfa_offset 16
	.cfi_offset 6, -16
	xorl	%edi, %edi
	movq	%rsp, %rbp
	.cfi_def_cfa_register 6
	call	_ZN5riscv10fenv_setrmEi
	movl	$1, %edi
	movl	$1, %eax
	popq	%rbp
	.cfi_def_cfa 7, 8
	movsd	.LC11(%rip), %xmm0
	leaq	.LC13(%rip), %rsi
	jmp	__printf_chk@PLT
	.cfi_endproc
.LFE4633:
	.size	_Z16test_fmadd_s_115v, .-_Z16test_fmadd_s_115v
	.p2align 4
	.globl	_Z16test_fmadd_s_116v
	.type	_Z16test_fmadd_s_116v, @function
_Z16test_fmadd_s_116v:
.LFB4663:
	.cfi_startproc
	endbr64
	pushq	%rbp
	.cfi_def_cfa_offset 16
	.cfi_offset 6, -16
	xorl	%edi, %edi
	movq	%rsp, %rbp
	.cfi_def_cfa_register 6
	call	_ZN5riscv10fenv_setrmEi
	movl	$1, %edi
	movl	$1, %eax
	popq	%rbp
	.cfi_def_cfa 7, 8
	movsd	.LC34(%rip), %xmm0
	leaq	.LC13(%rip), %rsi
	jmp	__printf_chk@PLT
	.cfi_endproc
.LFE4663:
	.size	_Z16test_fmadd_s_116v, .-_Z16test_fmadd_s_116v
	.p2align 4
	.globl	_Z16test_fmadd_s_117v
	.type	_Z16test_fmadd_s_117v, @function
_Z16test_fmadd_s_117v:
.LFB4677:
	.cfi_startproc
	endbr64
	pushq	%rbp
	.cfi_def_cfa_offset 16
	.cfi_offset 6, -16
	xorl	%edi, %edi
	movq	%rsp, %rbp
	.cfi_def_cfa_register 6
	call	_ZN5riscv10fenv_setrmEi
	movl	$1, %edi
	movl	$1, %eax
	popq	%rbp
	.cfi_def_cfa 7, 8
	movsd	.LC35(%rip), %xmm0
	leaq	.LC13(%rip), %rsi
	jmp	__printf_chk@PLT
	.cfi_endproc
.LFE4677:
	.size	_Z16test_fmadd_s_117v, .-_Z16test_fmadd_s_117v
	.p2align 4
	.globl	_Z16test_fmadd_s_118v
	.type	_Z16test_fmadd_s_118v, @function
_Z16test_fmadd_s_118v:
.LFB4181:
	.cfi_startproc
	endbr64
	pushq	%rbp
	.cfi_def_cfa_offset 16
	.cfi_offset 6, -16
	xorl	%edi, %edi
	movq	%rsp, %rbp
	.cfi_def_cfa_register 6
	call	_ZN5riscv10fenv_setrmEi
	movl	$1, %edi
	movl	$1, %eax
	popq	%rbp
	.cfi_def_cfa 7, 8
	movsd	.LC24(%rip), %xmm0
	leaq	.LC13(%rip), %rsi
	jmp	__printf_chk@PLT
	.cfi_endproc
.LFE4181:
	.size	_Z16test_fmadd_s_118v, .-_Z16test_fmadd_s_118v
	.p2align 4
	.globl	_Z16test_fmadd_s_119v
	.type	_Z16test_fmadd_s_119v, @function
_Z16test_fmadd_s_119v:
.LFB3143:
	.cfi_startproc
	endbr64
	jmp	_Z14test_fmadd_s_5v
	.cfi_endproc
.LFE3143:
	.size	_Z16test_fmadd_s_119v, .-_Z16test_fmadd_s_119v
	.p2align 4
	.globl	_Z16test_fmadd_s_120v
	.type	_Z16test_fmadd_s_120v, @function
_Z16test_fmadd_s_120v:
.LFB3439:
	.cfi_startproc
	endbr64
	jmp	_Z14test_fmadd_s_6v
	.cfi_endproc
.LFE3439:
	.size	_Z16test_fmadd_s_120v, .-_Z16test_fmadd_s_120v
	.p2align 4
	.globl	_Z16test_fmadd_s_121v
	.type	_Z16test_fmadd_s_121v, @function
_Z16test_fmadd_s_121v:
.LFB4687:
	.cfi_startproc
	endbr64
	pushq	%rbp
	.cfi_def_cfa_offset 16
	.cfi_offset 6, -16
	xorl	%edi, %edi
	movq	%rsp, %rbp
	.cfi_def_cfa_register 6
	call	_ZN5riscv10fenv_setrmEi
	movl	$1, %edi
	movl	$1, %eax
	popq	%rbp
	.cfi_def_cfa 7, 8
	movsd	.LC40(%rip), %xmm0
	leaq	.LC13(%rip), %rsi
	jmp	__printf_chk@PLT
	.cfi_endproc
.LFE4687:
	.size	_Z16test_fmadd_s_121v, .-_Z16test_fmadd_s_121v
	.p2align 4
	.globl	_Z16test_fmadd_s_122v
	.type	_Z16test_fmadd_s_122v, @function
_Z16test_fmadd_s_122v:
.LFB4693:
	.cfi_startproc
	endbr64
	pushq	%rbp
	.cfi_def_cfa_offset 16
	.cfi_offset 6, -16
	xorl	%edi, %edi
	movq	%rsp, %rbp
	.cfi_def_cfa_register 6
	call	_ZN5riscv10fenv_setrmEi
	movl	$1, %edi
	movl	$1, %eax
	popq	%rbp
	.cfi_def_cfa 7, 8
	movsd	.LC41(%rip), %xmm0
	leaq	.LC13(%rip), %rsi
	jmp	__printf_chk@PLT
	.cfi_endproc
.LFE4693:
	.size	_Z16test_fmadd_s_122v, .-_Z16test_fmadd_s_122v
	.p2align 4
	.globl	_Z16test_fmadd_s_123v
	.type	_Z16test_fmadd_s_123v, @function
_Z16test_fmadd_s_123v:
.LFB4699:
	.cfi_startproc
	endbr64
	pushq	%rbp
	.cfi_def_cfa_offset 16
	.cfi_offset 6, -16
	xorl	%edi, %edi
	movq	%rsp, %rbp
	.cfi_def_cfa_register 6
	call	_ZN5riscv10fenv_setrmEi
	movl	$1, %edi
	movl	$1, %eax
	popq	%rbp
	.cfi_def_cfa 7, 8
	movsd	.LC42(%rip), %xmm0
	leaq	.LC13(%rip), %rsi
	jmp	__printf_chk@PLT
	.cfi_endproc
.LFE4699:
	.size	_Z16test_fmadd_s_123v, .-_Z16test_fmadd_s_123v
	.p2align 4
	.globl	_Z16test_fmadd_s_124v
	.type	_Z16test_fmadd_s_124v, @function
_Z16test_fmadd_s_124v:
.LFB4705:
	.cfi_startproc
	endbr64
	pushq	%rbp
	.cfi_def_cfa_offset 16
	.cfi_offset 6, -16
	xorl	%edi, %edi
	movq	%rsp, %rbp
	.cfi_def_cfa_register 6
	call	_ZN5riscv10fenv_setrmEi
	movl	$1, %edi
	movl	$1, %eax
	popq	%rbp
	.cfi_def_cfa 7, 8
	movsd	.LC43(%rip), %xmm0
	leaq	.LC13(%rip), %rsi
	jmp	__printf_chk@PLT
	.cfi_endproc
.LFE4705:
	.size	_Z16test_fmadd_s_124v, .-_Z16test_fmadd_s_124v
	.p2align 4
	.globl	_Z16test_fmadd_s_125v
	.type	_Z16test_fmadd_s_125v, @function
_Z16test_fmadd_s_125v:
.LFB3145:
	.cfi_startproc
	endbr64
	jmp	_Z14test_fmadd_s_5v
	.cfi_endproc
.LFE3145:
	.size	_Z16test_fmadd_s_125v, .-_Z16test_fmadd_s_125v
	.p2align 4
	.globl	_Z16test_fmadd_s_126v
	.type	_Z16test_fmadd_s_126v, @function
_Z16test_fmadd_s_126v:
.LFB3441:
	.cfi_startproc
	endbr64
	jmp	_Z14test_fmadd_s_6v
	.cfi_endproc
.LFE3441:
	.size	_Z16test_fmadd_s_126v, .-_Z16test_fmadd_s_126v
	.p2align 4
	.globl	_Z16test_fmadd_s_127v
	.type	_Z16test_fmadd_s_127v, @function
_Z16test_fmadd_s_127v:
.LFB715:
	.loc 2 1546 1 is_stmt 1 view -0
	.cfi_startproc
	endbr64
	.loc 2 1547 2 view .LVU1347
.LVL316:
	.loc 2 1548 2 view .LVU1348
	.loc 2 1549 2 view .LVU1349
	.loc 2 1550 2 view .LVU1350
.LBB16969:
.LBI16969:
	.loc 2 27 16 view .LVU1351
.LBB16970:
	.loc 2 29 2 view .LVU1352
	.loc 2 30 2 view .LVU1353
.LBE16970:
.LBE16969:
	.loc 2 1546 1 is_stmt 0 view .LVU1354
	pushq	%rbp
	.cfi_def_cfa_offset 16
	.cfi_offset 6, -16
.LBB16973:
.LBB16971:
	.loc 2 30 12 view .LVU1355
	xorl	%edi, %edi
.LBE16971:
.LBE16973:
	.loc 2 1546 1 view .LVU1356
	movq	%rsp, %rbp
	.cfi_def_cfa_register 6
.LBB16974:
.LBB16972:
	.loc 2 30 12 view .LVU1357
	call	_ZN5riscv10fenv_setrmEi
.LVL317:
	.loc 2 30 18 is_stmt 1 view .LVU1358
	.loc 2 31 2 view .LVU1359
	.loc 2 31 2 is_stmt 0 view .LVU1360
.LBE16972:
.LBE16974:
	.loc 2 1551 2 is_stmt 1 view .LVU1361
.LBB16975:
.LBI16975:
	.loc 4 105 1 view .LVU1362
.LBB16976:
	.loc 4 107 3 view .LVU1363
	.loc 4 107 23 is_stmt 0 view .LVU1364
	movl	$1, %edi
	movl	$1, %eax
.LBE16976:
.LBE16975:
	.loc 2 1552 1 view .LVU1365
	popq	%rbp
	.cfi_def_cfa 7, 8
.LBB16978:
.LBB16977:
	.loc 4 107 23 view .LVU1366
	movsd	.LC44(%rip), %xmm0
	leaq	.LC13(%rip), %rsi
	jmp	__printf_chk@PLT
.LVL318:
.LBE16977:
.LBE16978:
	.cfi_endproc
.LFE715:
	.size	_Z16test_fmadd_s_127v, .-_Z16test_fmadd_s_127v
	.p2align 4
	.globl	_Z16test_fmadd_s_128v
	.type	_Z16test_fmadd_s_128v, @function
_Z16test_fmadd_s_128v:
.LFB716:
	.loc 2 1555 1 is_stmt 1 view -0
	.cfi_startproc
	endbr64
	.loc 2 1556 2 view .LVU1368
.LVL319:
	.loc 2 1557 2 view .LVU1369
	.loc 2 1558 2 view .LVU1370
	.loc 2 1559 2 view .LVU1371
.LBB16983:
.LBI16983:
	.loc 2 27 16 view .LVU1372
.LBB16984:
	.loc 2 29 2 view .LVU1373
	.loc 2 30 2 view .LVU1374
.LBE16984:
.LBE16983:
	.loc 2 1555 1 is_stmt 0 view .LVU1375
	pushq	%rbp
	.cfi_def_cfa_offset 16
	.cfi_offset 6, -16
.LBB16987:
.LBB16985:
	.loc 2 30 12 view .LVU1376
	xorl	%edi, %edi
.LBE16985:
.LBE16987:
	.loc 2 1555 1 view .LVU1377
	movq	%rsp, %rbp
	.cfi_def_cfa_register 6
.LBB16988:
.LBB16986:
	.loc 2 30 12 view .LVU1378
	call	_ZN5riscv10fenv_setrmEi
.LVL320:
	.loc 2 30 18 is_stmt 1 view .LVU1379
	.loc 2 31 2 view .LVU1380
	.loc 2 31 2 is_stmt 0 view .LVU1381
.LBE16986:
.LBE16988:
	.loc 2 1560 2 is_stmt 1 view .LVU1382
.LBB16989:
.LBI16989:
	.loc 4 105 1 view .LVU1383
.LBB16990:
	.loc 4 107 3 view .LVU1384
	.loc 4 107 23 is_stmt 0 view .LVU1385
	movl	$1, %edi
	movl	$1, %eax
.LBE16990:
.LBE16989:
	.loc 2 1561 1 view .LVU1386
	popq	%rbp
	.cfi_def_cfa 7, 8
.LBB16992:
.LBB16991:
	.loc 4 107 23 view .LVU1387
	movsd	.LC45(%rip), %xmm0
	leaq	.LC13(%rip), %rsi
	jmp	__printf_chk@PLT
.LVL321:
.LBE16991:
.LBE16992:
	.cfi_endproc
.LFE716:
	.size	_Z16test_fmadd_s_128v, .-_Z16test_fmadd_s_128v
	.p2align 4
	.globl	_Z16test_fmadd_s_129v
	.type	_Z16test_fmadd_s_129v, @function
_Z16test_fmadd_s_129v:
.LFB717:
	.loc 2 1564 1 is_stmt 1 view -0
	.cfi_startproc
	endbr64
	.loc 2 1565 2 view .LVU1389
.LVL322:
	.loc 2 1566 2 view .LVU1390
	.loc 2 1567 2 view .LVU1391
	.loc 2 1568 2 view .LVU1392
.LBB16997:
.LBI16997:
	.loc 2 27 16 view .LVU1393
.LBB16998:
	.loc 2 29 2 view .LVU1394
	.loc 2 30 2 view .LVU1395
.LBE16998:
.LBE16997:
	.loc 2 1564 1 is_stmt 0 view .LVU1396
	pushq	%rbp
	.cfi_def_cfa_offset 16
	.cfi_offset 6, -16
.LBB17001:
.LBB16999:
	.loc 2 30 12 view .LVU1397
	xorl	%edi, %edi
.LBE16999:
.LBE17001:
	.loc 2 1564 1 view .LVU1398
	movq	%rsp, %rbp
	.cfi_def_cfa_register 6
.LBB17002:
.LBB17000:
	.loc 2 30 12 view .LVU1399
	call	_ZN5riscv10fenv_setrmEi
.LVL323:
	.loc 2 30 18 is_stmt 1 view .LVU1400
	.loc 2 31 2 view .LVU1401
	.loc 2 31 2 is_stmt 0 view .LVU1402
.LBE17000:
.LBE17002:
	.loc 2 1569 2 is_stmt 1 view .LVU1403
.LBB17003:
.LBI17003:
	.loc 4 105 1 view .LVU1404
.LBB17004:
	.loc 4 107 3 view .LVU1405
	.loc 4 107 23 is_stmt 0 view .LVU1406
	movl	$1, %edi
	movl	$1, %eax
.LBE17004:
.LBE17003:
	.loc 2 1570 1 view .LVU1407
	popq	%rbp
	.cfi_def_cfa 7, 8
.LBB17006:
.LBB17005:
	.loc 4 107 23 view .LVU1408
	movsd	.LC46(%rip), %xmm0
	leaq	.LC13(%rip), %rsi
	jmp	__printf_chk@PLT
.LVL324:
.LBE17005:
.LBE17006:
	.cfi_endproc
.LFE717:
	.size	_Z16test_fmadd_s_129v, .-_Z16test_fmadd_s_129v
	.p2align 4
	.globl	_Z16test_fmadd_s_130v
	.type	_Z16test_fmadd_s_130v, @function
_Z16test_fmadd_s_130v:
.LFB4615:
	.cfi_startproc
	endbr64
	pushq	%rbp
	.cfi_def_cfa_offset 16
	.cfi_offset 6, -16
	xorl	%edi, %edi
	movq	%rsp, %rbp
	.cfi_def_cfa_register 6
	call	_ZN5riscv10fenv_setrmEi
	movl	$1, %edi
	movl	$1, %eax
	popq	%rbp
	.cfi_def_cfa 7, 8
	movsd	.LC33(%rip), %xmm0
	leaq	.LC13(%rip), %rsi
	jmp	__printf_chk@PLT
	.cfi_endproc
.LFE4615:
	.size	_Z16test_fmadd_s_130v, .-_Z16test_fmadd_s_130v
	.p2align 4
	.globl	_Z16test_fmadd_s_131v
	.type	_Z16test_fmadd_s_131v, @function
_Z16test_fmadd_s_131v:
.LFB3147:
	.cfi_startproc
	endbr64
	jmp	_Z14test_fmadd_s_5v
	.cfi_endproc
.LFE3147:
	.size	_Z16test_fmadd_s_131v, .-_Z16test_fmadd_s_131v
	.p2align 4
	.globl	_Z16test_fmadd_s_132v
	.type	_Z16test_fmadd_s_132v, @function
_Z16test_fmadd_s_132v:
.LFB3443:
	.cfi_startproc
	endbr64
	jmp	_Z14test_fmadd_s_6v
	.cfi_endproc
.LFE3443:
	.size	_Z16test_fmadd_s_132v, .-_Z16test_fmadd_s_132v
	.p2align 4
	.globl	_Z16test_fmadd_s_133v
	.type	_Z16test_fmadd_s_133v, @function
_Z16test_fmadd_s_133v:
.LFB3149:
	.cfi_startproc
	endbr64
	jmp	_Z14test_fmadd_s_5v
	.cfi_endproc
.LFE3149:
	.size	_Z16test_fmadd_s_133v, .-_Z16test_fmadd_s_133v
	.p2align 4
	.globl	_Z16test_fmadd_s_134v
	.type	_Z16test_fmadd_s_134v, @function
_Z16test_fmadd_s_134v:
.LFB3151:
	.cfi_startproc
	endbr64
	jmp	_Z14test_fmadd_s_5v
	.cfi_endproc
.LFE3151:
	.size	_Z16test_fmadd_s_134v, .-_Z16test_fmadd_s_134v
	.p2align 4
	.globl	_Z16test_fmadd_s_135v
	.type	_Z16test_fmadd_s_135v, @function
_Z16test_fmadd_s_135v:
.LFB3153:
	.cfi_startproc
	endbr64
	jmp	_Z14test_fmadd_s_5v
	.cfi_endproc
.LFE3153:
	.size	_Z16test_fmadd_s_135v, .-_Z16test_fmadd_s_135v
	.p2align 4
	.globl	_Z16test_fmadd_s_136v
	.type	_Z16test_fmadd_s_136v, @function
_Z16test_fmadd_s_136v:
.LFB3155:
	.cfi_startproc
	endbr64
	jmp	_Z14test_fmadd_s_5v
	.cfi_endproc
.LFE3155:
	.size	_Z16test_fmadd_s_136v, .-_Z16test_fmadd_s_136v
	.p2align 4
	.globl	_Z16test_fmadd_s_137v
	.type	_Z16test_fmadd_s_137v, @function
_Z16test_fmadd_s_137v:
.LFB3157:
	.cfi_startproc
	endbr64
	jmp	_Z14test_fmadd_s_5v
	.cfi_endproc
.LFE3157:
	.size	_Z16test_fmadd_s_137v, .-_Z16test_fmadd_s_137v
	.p2align 4
	.globl	_Z16test_fmadd_s_138v
	.type	_Z16test_fmadd_s_138v, @function
_Z16test_fmadd_s_138v:
.LFB3445:
	.cfi_startproc
	endbr64
	jmp	_Z14test_fmadd_s_6v
	.cfi_endproc
.LFE3445:
	.size	_Z16test_fmadd_s_138v, .-_Z16test_fmadd_s_138v
	.p2align 4
	.globl	_Z16test_fmadd_s_139v
	.type	_Z16test_fmadd_s_139v, @function
_Z16test_fmadd_s_139v:
.LFB3447:
	.cfi_startproc
	endbr64
	jmp	_Z14test_fmadd_s_6v
	.cfi_endproc
.LFE3447:
	.size	_Z16test_fmadd_s_139v, .-_Z16test_fmadd_s_139v
	.p2align 4
	.globl	_Z16test_fmadd_s_140v
	.type	_Z16test_fmadd_s_140v, @function
_Z16test_fmadd_s_140v:
.LFB3449:
	.cfi_startproc
	endbr64
	jmp	_Z14test_fmadd_s_6v
	.cfi_endproc
.LFE3449:
	.size	_Z16test_fmadd_s_140v, .-_Z16test_fmadd_s_140v
	.p2align 4
	.globl	_Z16test_fmadd_s_141v
	.type	_Z16test_fmadd_s_141v, @function
_Z16test_fmadd_s_141v:
.LFB3451:
	.cfi_startproc
	endbr64
	jmp	_Z14test_fmadd_s_6v
	.cfi_endproc
.LFE3451:
	.size	_Z16test_fmadd_s_141v, .-_Z16test_fmadd_s_141v
	.p2align 4
	.globl	_Z16test_fmadd_s_142v
	.type	_Z16test_fmadd_s_142v, @function
_Z16test_fmadd_s_142v:
.LFB3453:
	.cfi_startproc
	endbr64
	jmp	_Z14test_fmadd_s_6v
	.cfi_endproc
.LFE3453:
	.size	_Z16test_fmadd_s_142v, .-_Z16test_fmadd_s_142v
	.p2align 4
	.globl	_Z16test_fmadd_s_143v
	.type	_Z16test_fmadd_s_143v, @function
_Z16test_fmadd_s_143v:
.LFB3455:
	.cfi_startproc
	endbr64
	jmp	_Z14test_fmadd_s_6v
	.cfi_endproc
.LFE3455:
	.size	_Z16test_fmadd_s_143v, .-_Z16test_fmadd_s_143v
	.p2align 4
	.globl	_Z16test_fmadd_s_144v
	.type	_Z16test_fmadd_s_144v, @function
_Z16test_fmadd_s_144v:
.LFB3457:
	.cfi_startproc
	endbr64
	jmp	_Z14test_fmadd_s_6v
	.cfi_endproc
.LFE3457:
	.size	_Z16test_fmadd_s_144v, .-_Z16test_fmadd_s_144v
	.p2align 4
	.globl	_Z16test_fmadd_s_145v
	.type	_Z16test_fmadd_s_145v, @function
_Z16test_fmadd_s_145v:
.LFB4333:
	.cfi_startproc
	endbr64
	pushq	%rbp
	.cfi_def_cfa_offset 16
	.cfi_offset 6, -16
	xorl	%edi, %edi
	movq	%rsp, %rbp
	.cfi_def_cfa_register 6
	call	_ZN5riscv10fenv_setrmEi
	movl	$1, %edi
	movl	$1, %eax
	popq	%rbp
	.cfi_def_cfa 7, 8
	movsd	.LC30(%rip), %xmm0
	leaq	.LC13(%rip), %rsi
	jmp	__printf_chk@PLT
	.cfi_endproc
.LFE4333:
	.size	_Z16test_fmadd_s_145v, .-_Z16test_fmadd_s_145v
	.p2align 4
	.globl	_Z16test_fmadd_s_146v
	.type	_Z16test_fmadd_s_146v, @function
_Z16test_fmadd_s_146v:
.LFB4335:
	.cfi_startproc
	endbr64
	pushq	%rbp
	.cfi_def_cfa_offset 16
	.cfi_offset 6, -16
	xorl	%edi, %edi
	movq	%rsp, %rbp
	.cfi_def_cfa_register 6
	call	_ZN5riscv10fenv_setrmEi
	movl	$1, %edi
	movl	$1, %eax
	popq	%rbp
	.cfi_def_cfa 7, 8
	movsd	.LC30(%rip), %xmm0
	leaq	.LC13(%rip), %rsi
	jmp	__printf_chk@PLT
	.cfi_endproc
.LFE4335:
	.size	_Z16test_fmadd_s_146v, .-_Z16test_fmadd_s_146v
	.p2align 4
	.globl	_Z16test_fmadd_s_147v
	.type	_Z16test_fmadd_s_147v, @function
_Z16test_fmadd_s_147v:
.LFB4337:
	.cfi_startproc
	endbr64
	pushq	%rbp
	.cfi_def_cfa_offset 16
	.cfi_offset 6, -16
	xorl	%edi, %edi
	movq	%rsp, %rbp
	.cfi_def_cfa_register 6
	call	_ZN5riscv10fenv_setrmEi
	movl	$1, %edi
	movl	$1, %eax
	popq	%rbp
	.cfi_def_cfa 7, 8
	movsd	.LC30(%rip), %xmm0
	leaq	.LC13(%rip), %rsi
	jmp	__printf_chk@PLT
	.cfi_endproc
.LFE4337:
	.size	_Z16test_fmadd_s_147v, .-_Z16test_fmadd_s_147v
	.p2align 4
	.globl	_Z16test_fmadd_s_148v
	.type	_Z16test_fmadd_s_148v, @function
_Z16test_fmadd_s_148v:
.LFB4339:
	.cfi_startproc
	endbr64
	pushq	%rbp
	.cfi_def_cfa_offset 16
	.cfi_offset 6, -16
	xorl	%edi, %edi
	movq	%rsp, %rbp
	.cfi_def_cfa_register 6
	call	_ZN5riscv10fenv_setrmEi
	movl	$1, %edi
	movl	$1, %eax
	popq	%rbp
	.cfi_def_cfa 7, 8
	movsd	.LC30(%rip), %xmm0
	leaq	.LC13(%rip), %rsi
	jmp	__printf_chk@PLT
	.cfi_endproc
.LFE4339:
	.size	_Z16test_fmadd_s_148v, .-_Z16test_fmadd_s_148v
	.p2align 4
	.globl	_Z16test_fmadd_s_149v
	.type	_Z16test_fmadd_s_149v, @function
_Z16test_fmadd_s_149v:
.LFB3459:
	.cfi_startproc
	endbr64
	jmp	_Z14test_fmadd_s_6v
	.cfi_endproc
.LFE3459:
	.size	_Z16test_fmadd_s_149v, .-_Z16test_fmadd_s_149v
	.p2align 4
	.globl	_Z16test_fmadd_s_150v
	.type	_Z16test_fmadd_s_150v, @function
_Z16test_fmadd_s_150v:
.LFB3461:
	.cfi_startproc
	endbr64
	jmp	_Z14test_fmadd_s_6v
	.cfi_endproc
.LFE3461:
	.size	_Z16test_fmadd_s_150v, .-_Z16test_fmadd_s_150v
	.p2align 4
	.globl	_Z16test_fmadd_s_151v
	.type	_Z16test_fmadd_s_151v, @function
_Z16test_fmadd_s_151v:
.LFB3159:
	.cfi_startproc
	endbr64
	jmp	_Z14test_fmadd_s_5v
	.cfi_endproc
.LFE3159:
	.size	_Z16test_fmadd_s_151v, .-_Z16test_fmadd_s_151v
	.p2align 4
	.globl	_Z16test_fmadd_s_152v
	.type	_Z16test_fmadd_s_152v, @function
_Z16test_fmadd_s_152v:
.LFB3161:
	.cfi_startproc
	endbr64
	jmp	_Z14test_fmadd_s_5v
	.cfi_endproc
.LFE3161:
	.size	_Z16test_fmadd_s_152v, .-_Z16test_fmadd_s_152v
	.p2align 4
	.globl	_Z16test_fmadd_s_153v
	.type	_Z16test_fmadd_s_153v, @function
_Z16test_fmadd_s_153v:
.LFB3163:
	.cfi_startproc
	endbr64
	jmp	_Z14test_fmadd_s_5v
	.cfi_endproc
.LFE3163:
	.size	_Z16test_fmadd_s_153v, .-_Z16test_fmadd_s_153v
	.p2align 4
	.globl	_Z16test_fmadd_s_154v
	.type	_Z16test_fmadd_s_154v, @function
_Z16test_fmadd_s_154v:
.LFB3165:
	.cfi_startproc
	endbr64
	jmp	_Z14test_fmadd_s_5v
	.cfi_endproc
.LFE3165:
	.size	_Z16test_fmadd_s_154v, .-_Z16test_fmadd_s_154v
	.p2align 4
	.globl	_Z16test_fmadd_s_155v
	.type	_Z16test_fmadd_s_155v, @function
_Z16test_fmadd_s_155v:
.LFB3167:
	.cfi_startproc
	endbr64
	jmp	_Z14test_fmadd_s_5v
	.cfi_endproc
.LFE3167:
	.size	_Z16test_fmadd_s_155v, .-_Z16test_fmadd_s_155v
	.p2align 4
	.globl	_Z16test_fmadd_s_156v
	.type	_Z16test_fmadd_s_156v, @function
_Z16test_fmadd_s_156v:
.LFB3463:
	.cfi_startproc
	endbr64
	jmp	_Z14test_fmadd_s_6v
	.cfi_endproc
.LFE3463:
	.size	_Z16test_fmadd_s_156v, .-_Z16test_fmadd_s_156v
	.p2align 4
	.globl	_Z16test_fmadd_s_157v
	.type	_Z16test_fmadd_s_157v, @function
_Z16test_fmadd_s_157v:
.LFB3169:
	.cfi_startproc
	endbr64
	jmp	_Z14test_fmadd_s_5v
	.cfi_endproc
.LFE3169:
	.size	_Z16test_fmadd_s_157v, .-_Z16test_fmadd_s_157v
	.p2align 4
	.globl	_Z16test_fmadd_s_158v
	.type	_Z16test_fmadd_s_158v, @function
_Z16test_fmadd_s_158v:
.LFB3171:
	.cfi_startproc
	endbr64
	jmp	_Z14test_fmadd_s_5v
	.cfi_endproc
.LFE3171:
	.size	_Z16test_fmadd_s_158v, .-_Z16test_fmadd_s_158v
	.p2align 4
	.globl	_Z16test_fmadd_s_159v
	.type	_Z16test_fmadd_s_159v, @function
_Z16test_fmadd_s_159v:
.LFB3173:
	.cfi_startproc
	endbr64
	jmp	_Z14test_fmadd_s_5v
	.cfi_endproc
.LFE3173:
	.size	_Z16test_fmadd_s_159v, .-_Z16test_fmadd_s_159v
	.p2align 4
	.globl	_Z16test_fmadd_s_160v
	.type	_Z16test_fmadd_s_160v, @function
_Z16test_fmadd_s_160v:
.LFB3175:
	.cfi_startproc
	endbr64
	jmp	_Z14test_fmadd_s_5v
	.cfi_endproc
.LFE3175:
	.size	_Z16test_fmadd_s_160v, .-_Z16test_fmadd_s_160v
	.p2align 4
	.globl	_Z16test_fmadd_s_161v
	.type	_Z16test_fmadd_s_161v, @function
_Z16test_fmadd_s_161v:
.LFB3177:
	.cfi_startproc
	endbr64
	jmp	_Z14test_fmadd_s_5v
	.cfi_endproc
.LFE3177:
	.size	_Z16test_fmadd_s_161v, .-_Z16test_fmadd_s_161v
	.p2align 4
	.globl	_Z16test_fmadd_s_162v
	.type	_Z16test_fmadd_s_162v, @function
_Z16test_fmadd_s_162v:
.LFB3465:
	.cfi_startproc
	endbr64
	jmp	_Z14test_fmadd_s_6v
	.cfi_endproc
.LFE3465:
	.size	_Z16test_fmadd_s_162v, .-_Z16test_fmadd_s_162v
	.p2align 4
	.globl	_Z16test_fmadd_s_163v
	.type	_Z16test_fmadd_s_163v, @function
_Z16test_fmadd_s_163v:
.LFB3179:
	.cfi_startproc
	endbr64
	jmp	_Z14test_fmadd_s_5v
	.cfi_endproc
.LFE3179:
	.size	_Z16test_fmadd_s_163v, .-_Z16test_fmadd_s_163v
	.p2align 4
	.globl	_Z16test_fmadd_s_164v
	.type	_Z16test_fmadd_s_164v, @function
_Z16test_fmadd_s_164v:
.LFB3181:
	.cfi_startproc
	endbr64
	jmp	_Z14test_fmadd_s_5v
	.cfi_endproc
.LFE3181:
	.size	_Z16test_fmadd_s_164v, .-_Z16test_fmadd_s_164v
	.p2align 4
	.globl	_Z16test_fmadd_s_165v
	.type	_Z16test_fmadd_s_165v, @function
_Z16test_fmadd_s_165v:
.LFB3183:
	.cfi_startproc
	endbr64
	jmp	_Z14test_fmadd_s_5v
	.cfi_endproc
.LFE3183:
	.size	_Z16test_fmadd_s_165v, .-_Z16test_fmadd_s_165v
	.p2align 4
	.globl	_Z16test_fmadd_s_166v
	.type	_Z16test_fmadd_s_166v, @function
_Z16test_fmadd_s_166v:
.LFB3185:
	.cfi_startproc
	endbr64
	jmp	_Z14test_fmadd_s_5v
	.cfi_endproc
.LFE3185:
	.size	_Z16test_fmadd_s_166v, .-_Z16test_fmadd_s_166v
	.p2align 4
	.globl	_Z16test_fmadd_s_167v
	.type	_Z16test_fmadd_s_167v, @function
_Z16test_fmadd_s_167v:
.LFB3187:
	.cfi_startproc
	endbr64
	jmp	_Z14test_fmadd_s_5v
	.cfi_endproc
.LFE3187:
	.size	_Z16test_fmadd_s_167v, .-_Z16test_fmadd_s_167v
	.p2align 4
	.globl	_Z16test_fmadd_s_168v
	.type	_Z16test_fmadd_s_168v, @function
_Z16test_fmadd_s_168v:
.LFB3467:
	.cfi_startproc
	endbr64
	jmp	_Z14test_fmadd_s_6v
	.cfi_endproc
.LFE3467:
	.size	_Z16test_fmadd_s_168v, .-_Z16test_fmadd_s_168v
	.p2align 4
	.globl	_Z16test_fmadd_s_169v
	.type	_Z16test_fmadd_s_169v, @function
_Z16test_fmadd_s_169v:
.LFB3189:
	.cfi_startproc
	endbr64
	jmp	_Z14test_fmadd_s_5v
	.cfi_endproc
.LFE3189:
	.size	_Z16test_fmadd_s_169v, .-_Z16test_fmadd_s_169v
	.p2align 4
	.globl	_Z16test_fmadd_s_170v
	.type	_Z16test_fmadd_s_170v, @function
_Z16test_fmadd_s_170v:
.LFB3191:
	.cfi_startproc
	endbr64
	jmp	_Z14test_fmadd_s_5v
	.cfi_endproc
.LFE3191:
	.size	_Z16test_fmadd_s_170v, .-_Z16test_fmadd_s_170v
	.p2align 4
	.globl	_Z16test_fmadd_s_171v
	.type	_Z16test_fmadd_s_171v, @function
_Z16test_fmadd_s_171v:
.LFB3193:
	.cfi_startproc
	endbr64
	jmp	_Z14test_fmadd_s_5v
	.cfi_endproc
.LFE3193:
	.size	_Z16test_fmadd_s_171v, .-_Z16test_fmadd_s_171v
	.p2align 4
	.globl	_Z16test_fmadd_s_172v
	.type	_Z16test_fmadd_s_172v, @function
_Z16test_fmadd_s_172v:
.LFB3195:
	.cfi_startproc
	endbr64
	jmp	_Z14test_fmadd_s_5v
	.cfi_endproc
.LFE3195:
	.size	_Z16test_fmadd_s_172v, .-_Z16test_fmadd_s_172v
	.p2align 4
	.globl	_Z16test_fmadd_s_173v
	.type	_Z16test_fmadd_s_173v, @function
_Z16test_fmadd_s_173v:
.LFB3197:
	.cfi_startproc
	endbr64
	jmp	_Z14test_fmadd_s_5v
	.cfi_endproc
.LFE3197:
	.size	_Z16test_fmadd_s_173v, .-_Z16test_fmadd_s_173v
	.p2align 4
	.globl	_Z16test_fmadd_s_174v
	.type	_Z16test_fmadd_s_174v, @function
_Z16test_fmadd_s_174v:
.LFB3469:
	.cfi_startproc
	endbr64
	jmp	_Z14test_fmadd_s_6v
	.cfi_endproc
.LFE3469:
	.size	_Z16test_fmadd_s_174v, .-_Z16test_fmadd_s_174v
	.p2align 4
	.globl	_Z16test_fmadd_s_175v
	.type	_Z16test_fmadd_s_175v, @function
_Z16test_fmadd_s_175v:
.LFB3471:
	.cfi_startproc
	endbr64
	jmp	_Z14test_fmadd_s_6v
	.cfi_endproc
.LFE3471:
	.size	_Z16test_fmadd_s_175v, .-_Z16test_fmadd_s_175v
	.p2align 4
	.globl	_Z16test_fmadd_s_176v
	.type	_Z16test_fmadd_s_176v, @function
_Z16test_fmadd_s_176v:
.LFB3473:
	.cfi_startproc
	endbr64
	jmp	_Z14test_fmadd_s_6v
	.cfi_endproc
.LFE3473:
	.size	_Z16test_fmadd_s_176v, .-_Z16test_fmadd_s_176v
	.p2align 4
	.globl	_Z16test_fmadd_s_177v
	.type	_Z16test_fmadd_s_177v, @function
_Z16test_fmadd_s_177v:
.LFB3475:
	.cfi_startproc
	endbr64
	jmp	_Z14test_fmadd_s_6v
	.cfi_endproc
.LFE3475:
	.size	_Z16test_fmadd_s_177v, .-_Z16test_fmadd_s_177v
	.p2align 4
	.globl	_Z16test_fmadd_s_178v
	.type	_Z16test_fmadd_s_178v, @function
_Z16test_fmadd_s_178v:
.LFB3477:
	.cfi_startproc
	endbr64
	jmp	_Z14test_fmadd_s_6v
	.cfi_endproc
.LFE3477:
	.size	_Z16test_fmadd_s_178v, .-_Z16test_fmadd_s_178v
	.p2align 4
	.globl	_Z16test_fmadd_s_179v
	.type	_Z16test_fmadd_s_179v, @function
_Z16test_fmadd_s_179v:
.LFB3479:
	.cfi_startproc
	endbr64
	jmp	_Z14test_fmadd_s_6v
	.cfi_endproc
.LFE3479:
	.size	_Z16test_fmadd_s_179v, .-_Z16test_fmadd_s_179v
	.p2align 4
	.globl	_Z16test_fmadd_s_180v
	.type	_Z16test_fmadd_s_180v, @function
_Z16test_fmadd_s_180v:
.LFB3481:
	.cfi_startproc
	endbr64
	jmp	_Z14test_fmadd_s_6v
	.cfi_endproc
.LFE3481:
	.size	_Z16test_fmadd_s_180v, .-_Z16test_fmadd_s_180v
	.p2align 4
	.globl	_Z16test_fmadd_s_181v
	.type	_Z16test_fmadd_s_181v, @function
_Z16test_fmadd_s_181v:
.LFB3483:
	.cfi_startproc
	endbr64
	jmp	_Z14test_fmadd_s_6v
	.cfi_endproc
.LFE3483:
	.size	_Z16test_fmadd_s_181v, .-_Z16test_fmadd_s_181v
	.p2align 4
	.globl	_Z16test_fmadd_s_182v
	.type	_Z16test_fmadd_s_182v, @function
_Z16test_fmadd_s_182v:
.LFB3485:
	.cfi_startproc
	endbr64
	jmp	_Z14test_fmadd_s_6v
	.cfi_endproc
.LFE3485:
	.size	_Z16test_fmadd_s_182v, .-_Z16test_fmadd_s_182v
	.p2align 4
	.globl	_Z16test_fmadd_s_183v
	.type	_Z16test_fmadd_s_183v, @function
_Z16test_fmadd_s_183v:
.LFB3487:
	.cfi_startproc
	endbr64
	jmp	_Z14test_fmadd_s_6v
	.cfi_endproc
.LFE3487:
	.size	_Z16test_fmadd_s_183v, .-_Z16test_fmadd_s_183v
	.p2align 4
	.globl	_Z16test_fmadd_s_184v
	.type	_Z16test_fmadd_s_184v, @function
_Z16test_fmadd_s_184v:
.LFB3489:
	.cfi_startproc
	endbr64
	jmp	_Z14test_fmadd_s_6v
	.cfi_endproc
.LFE3489:
	.size	_Z16test_fmadd_s_184v, .-_Z16test_fmadd_s_184v
	.p2align 4
	.globl	_Z16test_fmadd_s_185v
	.type	_Z16test_fmadd_s_185v, @function
_Z16test_fmadd_s_185v:
.LFB3491:
	.cfi_startproc
	endbr64
	jmp	_Z14test_fmadd_s_6v
	.cfi_endproc
.LFE3491:
	.size	_Z16test_fmadd_s_185v, .-_Z16test_fmadd_s_185v
	.p2align 4
	.globl	_Z16test_fmadd_s_186v
	.type	_Z16test_fmadd_s_186v, @function
_Z16test_fmadd_s_186v:
.LFB3493:
	.cfi_startproc
	endbr64
	jmp	_Z14test_fmadd_s_6v
	.cfi_endproc
.LFE3493:
	.size	_Z16test_fmadd_s_186v, .-_Z16test_fmadd_s_186v
	.p2align 4
	.globl	_Z16test_fmadd_s_187v
	.type	_Z16test_fmadd_s_187v, @function
_Z16test_fmadd_s_187v:
.LFB3495:
	.cfi_startproc
	endbr64
	jmp	_Z14test_fmadd_s_6v
	.cfi_endproc
.LFE3495:
	.size	_Z16test_fmadd_s_187v, .-_Z16test_fmadd_s_187v
	.p2align 4
	.globl	_Z16test_fmadd_s_188v
	.type	_Z16test_fmadd_s_188v, @function
_Z16test_fmadd_s_188v:
.LFB3497:
	.cfi_startproc
	endbr64
	jmp	_Z14test_fmadd_s_6v
	.cfi_endproc
.LFE3497:
	.size	_Z16test_fmadd_s_188v, .-_Z16test_fmadd_s_188v
	.p2align 4
	.globl	_Z16test_fmadd_s_189v
	.type	_Z16test_fmadd_s_189v, @function
_Z16test_fmadd_s_189v:
.LFB3499:
	.cfi_startproc
	endbr64
	jmp	_Z14test_fmadd_s_6v
	.cfi_endproc
.LFE3499:
	.size	_Z16test_fmadd_s_189v, .-_Z16test_fmadd_s_189v
	.p2align 4
	.globl	_Z16test_fmadd_s_190v
	.type	_Z16test_fmadd_s_190v, @function
_Z16test_fmadd_s_190v:
.LFB3501:
	.cfi_startproc
	endbr64
	jmp	_Z14test_fmadd_s_6v
	.cfi_endproc
.LFE3501:
	.size	_Z16test_fmadd_s_190v, .-_Z16test_fmadd_s_190v
	.p2align 4
	.globl	_Z16test_fmadd_s_191v
	.type	_Z16test_fmadd_s_191v, @function
_Z16test_fmadd_s_191v:
.LFB3503:
	.cfi_startproc
	endbr64
	jmp	_Z14test_fmadd_s_6v
	.cfi_endproc
.LFE3503:
	.size	_Z16test_fmadd_s_191v, .-_Z16test_fmadd_s_191v
	.p2align 4
	.globl	_Z16test_fmadd_s_192v
	.type	_Z16test_fmadd_s_192v, @function
_Z16test_fmadd_s_192v:
.LFB3505:
	.cfi_startproc
	endbr64
	jmp	_Z14test_fmadd_s_6v
	.cfi_endproc
.LFE3505:
	.size	_Z16test_fmadd_s_192v, .-_Z16test_fmadd_s_192v
	.p2align 4
	.globl	_Z16test_fmadd_s_193v
	.type	_Z16test_fmadd_s_193v, @function
_Z16test_fmadd_s_193v:
.LFB3507:
	.cfi_startproc
	endbr64
	jmp	_Z14test_fmadd_s_6v
	.cfi_endproc
.LFE3507:
	.size	_Z16test_fmadd_s_193v, .-_Z16test_fmadd_s_193v
	.p2align 4
	.globl	_Z16test_fmadd_s_194v
	.type	_Z16test_fmadd_s_194v, @function
_Z16test_fmadd_s_194v:
.LFB3509:
	.cfi_startproc
	endbr64
	jmp	_Z14test_fmadd_s_6v
	.cfi_endproc
.LFE3509:
	.size	_Z16test_fmadd_s_194v, .-_Z16test_fmadd_s_194v
	.p2align 4
	.globl	_Z16test_fmadd_s_195v
	.type	_Z16test_fmadd_s_195v, @function
_Z16test_fmadd_s_195v:
.LFB3511:
	.cfi_startproc
	endbr64
	jmp	_Z14test_fmadd_s_6v
	.cfi_endproc
.LFE3511:
	.size	_Z16test_fmadd_s_195v, .-_Z16test_fmadd_s_195v
	.p2align 4
	.globl	_Z16test_fmadd_s_196v
	.type	_Z16test_fmadd_s_196v, @function
_Z16test_fmadd_s_196v:
.LFB3513:
	.cfi_startproc
	endbr64
	jmp	_Z14test_fmadd_s_6v
	.cfi_endproc
.LFE3513:
	.size	_Z16test_fmadd_s_196v, .-_Z16test_fmadd_s_196v
	.p2align 4
	.globl	_Z16test_fmadd_s_197v
	.type	_Z16test_fmadd_s_197v, @function
_Z16test_fmadd_s_197v:
.LFB3515:
	.cfi_startproc
	endbr64
	jmp	_Z14test_fmadd_s_6v
	.cfi_endproc
.LFE3515:
	.size	_Z16test_fmadd_s_197v, .-_Z16test_fmadd_s_197v
	.p2align 4
	.globl	_Z16test_fmadd_s_198v
	.type	_Z16test_fmadd_s_198v, @function
_Z16test_fmadd_s_198v:
.LFB3517:
	.cfi_startproc
	endbr64
	jmp	_Z14test_fmadd_s_6v
	.cfi_endproc
.LFE3517:
	.size	_Z16test_fmadd_s_198v, .-_Z16test_fmadd_s_198v
	.p2align 4
	.globl	_Z16test_fmadd_s_199v
	.type	_Z16test_fmadd_s_199v, @function
_Z16test_fmadd_s_199v:
.LFB3519:
	.cfi_startproc
	endbr64
	jmp	_Z14test_fmadd_s_6v
	.cfi_endproc
.LFE3519:
	.size	_Z16test_fmadd_s_199v, .-_Z16test_fmadd_s_199v
	.p2align 4
	.globl	_Z16test_fmadd_s_200v
	.type	_Z16test_fmadd_s_200v, @function
_Z16test_fmadd_s_200v:
.LFB3521:
	.cfi_startproc
	endbr64
	jmp	_Z14test_fmadd_s_6v
	.cfi_endproc
.LFE3521:
	.size	_Z16test_fmadd_s_200v, .-_Z16test_fmadd_s_200v
	.p2align 4
	.globl	_Z16test_fmadd_s_201v
	.type	_Z16test_fmadd_s_201v, @function
_Z16test_fmadd_s_201v:
.LFB3523:
	.cfi_startproc
	endbr64
	jmp	_Z14test_fmadd_s_6v
	.cfi_endproc
.LFE3523:
	.size	_Z16test_fmadd_s_201v, .-_Z16test_fmadd_s_201v
	.p2align 4
	.globl	_Z16test_fmadd_s_202v
	.type	_Z16test_fmadd_s_202v, @function
_Z16test_fmadd_s_202v:
.LFB3525:
	.cfi_startproc
	endbr64
	jmp	_Z14test_fmadd_s_6v
	.cfi_endproc
.LFE3525:
	.size	_Z16test_fmadd_s_202v, .-_Z16test_fmadd_s_202v
	.p2align 4
	.globl	_Z16test_fmadd_s_203v
	.type	_Z16test_fmadd_s_203v, @function
_Z16test_fmadd_s_203v:
.LFB3527:
	.cfi_startproc
	endbr64
	jmp	_Z14test_fmadd_s_6v
	.cfi_endproc
.LFE3527:
	.size	_Z16test_fmadd_s_203v, .-_Z16test_fmadd_s_203v
	.p2align 4
	.globl	_Z16test_fmadd_s_204v
	.type	_Z16test_fmadd_s_204v, @function
_Z16test_fmadd_s_204v:
.LFB3529:
	.cfi_startproc
	endbr64
	jmp	_Z14test_fmadd_s_6v
	.cfi_endproc
.LFE3529:
	.size	_Z16test_fmadd_s_204v, .-_Z16test_fmadd_s_204v
	.p2align 4
	.globl	_Z16test_fmadd_s_205v
	.type	_Z16test_fmadd_s_205v, @function
_Z16test_fmadd_s_205v:
.LFB3531:
	.cfi_startproc
	endbr64
	jmp	_Z14test_fmadd_s_6v
	.cfi_endproc
.LFE3531:
	.size	_Z16test_fmadd_s_205v, .-_Z16test_fmadd_s_205v
	.p2align 4
	.globl	_Z16test_fmadd_s_206v
	.type	_Z16test_fmadd_s_206v, @function
_Z16test_fmadd_s_206v:
.LFB3533:
	.cfi_startproc
	endbr64
	jmp	_Z14test_fmadd_s_6v
	.cfi_endproc
.LFE3533:
	.size	_Z16test_fmadd_s_206v, .-_Z16test_fmadd_s_206v
	.p2align 4
	.globl	_Z16test_fmadd_s_207v
	.type	_Z16test_fmadd_s_207v, @function
_Z16test_fmadd_s_207v:
.LFB3535:
	.cfi_startproc
	endbr64
	jmp	_Z14test_fmadd_s_6v
	.cfi_endproc
.LFE3535:
	.size	_Z16test_fmadd_s_207v, .-_Z16test_fmadd_s_207v
	.p2align 4
	.globl	_Z16test_fmadd_s_208v
	.type	_Z16test_fmadd_s_208v, @function
_Z16test_fmadd_s_208v:
.LFB3537:
	.cfi_startproc
	endbr64
	jmp	_Z14test_fmadd_s_6v
	.cfi_endproc
.LFE3537:
	.size	_Z16test_fmadd_s_208v, .-_Z16test_fmadd_s_208v
	.p2align 4
	.globl	_Z16test_fmadd_s_209v
	.type	_Z16test_fmadd_s_209v, @function
_Z16test_fmadd_s_209v:
.LFB3539:
	.cfi_startproc
	endbr64
	jmp	_Z14test_fmadd_s_6v
	.cfi_endproc
.LFE3539:
	.size	_Z16test_fmadd_s_209v, .-_Z16test_fmadd_s_209v
	.p2align 4
	.globl	_Z16test_fmadd_s_210v
	.type	_Z16test_fmadd_s_210v, @function
_Z16test_fmadd_s_210v:
.LFB3541:
	.cfi_startproc
	endbr64
	jmp	_Z14test_fmadd_s_6v
	.cfi_endproc
.LFE3541:
	.size	_Z16test_fmadd_s_210v, .-_Z16test_fmadd_s_210v
	.p2align 4
	.globl	_Z16test_fmadd_s_211v
	.type	_Z16test_fmadd_s_211v, @function
_Z16test_fmadd_s_211v:
.LFB3543:
	.cfi_startproc
	endbr64
	jmp	_Z14test_fmadd_s_6v
	.cfi_endproc
.LFE3543:
	.size	_Z16test_fmadd_s_211v, .-_Z16test_fmadd_s_211v
	.p2align 4
	.globl	_Z16test_fmadd_s_212v
	.type	_Z16test_fmadd_s_212v, @function
_Z16test_fmadd_s_212v:
.LFB3545:
	.cfi_startproc
	endbr64
	jmp	_Z14test_fmadd_s_6v
	.cfi_endproc
.LFE3545:
	.size	_Z16test_fmadd_s_212v, .-_Z16test_fmadd_s_212v
	.p2align 4
	.globl	_Z16test_fmadd_s_213v
	.type	_Z16test_fmadd_s_213v, @function
_Z16test_fmadd_s_213v:
.LFB3547:
	.cfi_startproc
	endbr64
	jmp	_Z14test_fmadd_s_6v
	.cfi_endproc
.LFE3547:
	.size	_Z16test_fmadd_s_213v, .-_Z16test_fmadd_s_213v
	.p2align 4
	.globl	_Z16test_fmadd_s_214v
	.type	_Z16test_fmadd_s_214v, @function
_Z16test_fmadd_s_214v:
.LFB3549:
	.cfi_startproc
	endbr64
	jmp	_Z14test_fmadd_s_6v
	.cfi_endproc
.LFE3549:
	.size	_Z16test_fmadd_s_214v, .-_Z16test_fmadd_s_214v
	.p2align 4
	.globl	_Z16test_fmadd_s_215v
	.type	_Z16test_fmadd_s_215v, @function
_Z16test_fmadd_s_215v:
.LFB3551:
	.cfi_startproc
	endbr64
	jmp	_Z14test_fmadd_s_6v
	.cfi_endproc
.LFE3551:
	.size	_Z16test_fmadd_s_215v, .-_Z16test_fmadd_s_215v
	.p2align 4
	.globl	_Z16test_fmadd_s_216v
	.type	_Z16test_fmadd_s_216v, @function
_Z16test_fmadd_s_216v:
.LFB3553:
	.cfi_startproc
	endbr64
	jmp	_Z14test_fmadd_s_6v
	.cfi_endproc
.LFE3553:
	.size	_Z16test_fmadd_s_216v, .-_Z16test_fmadd_s_216v
	.p2align 4
	.globl	_Z14test_fmsub_s_1v
	.type	_Z14test_fmsub_s_1v, @function
_Z14test_fmsub_s_1v:
.LFB3075:
	.cfi_startproc
	endbr64
	pushq	%rbp
	.cfi_def_cfa_offset 16
	.cfi_offset 6, -16
	xorl	%edi, %edi
	movq	%rsp, %rbp
	.cfi_def_cfa_register 6
	call	_ZN5riscv10fenv_setrmEi
	movl	$1, %edi
	movl	$1, %eax
	popq	%rbp
	.cfi_def_cfa 7, 8
	movsd	.LC14(%rip), %xmm0
	leaq	.LC13(%rip), %rsi
	jmp	__printf_chk@PLT
	.cfi_endproc
.LFE3075:
	.size	_Z14test_fmsub_s_1v, .-_Z14test_fmsub_s_1v
	.p2align 4
	.globl	_Z14test_fmsub_s_2v
	.type	_Z14test_fmsub_s_2v, @function
_Z14test_fmsub_s_2v:
.LFB3053:
	.cfi_startproc
	endbr64
	pushq	%rbp
	.cfi_def_cfa_offset 16
	.cfi_offset 6, -16
	xorl	%edi, %edi
	movq	%rsp, %rbp
	.cfi_def_cfa_register 6
	call	_ZN5riscv10fenv_setrmEi
	movl	$1, %edi
	movl	$1, %eax
	popq	%rbp
	.cfi_def_cfa 7, 8
	movsd	.LC12(%rip), %xmm0
	leaq	.LC13(%rip), %rsi
	jmp	__printf_chk@PLT
	.cfi_endproc
.LFE3053:
	.size	_Z14test_fmsub_s_2v, .-_Z14test_fmsub_s_2v
	.p2align 4
	.globl	_Z14test_fmsub_s_3v
	.type	_Z14test_fmsub_s_3v, @function
_Z14test_fmsub_s_3v:
.LFB807:
	.loc 2 2374 1 is_stmt 1 view -0
	.cfi_startproc
	endbr64
	.loc 2 2375 2 view .LVU1410
.LVL325:
	.loc 2 2376 2 view .LVU1411
	.loc 2 2377 2 view .LVU1412
	.loc 2 2378 2 view .LVU1413
.LBB17011:
.LBI17011:
	.loc 2 34 16 view .LVU1414
.LBB17012:
	.loc 2 36 2 view .LVU1415
	.loc 2 37 2 view .LVU1416
.LBE17012:
.LBE17011:
	.loc 2 2374 1 is_stmt 0 view .LVU1417
	pushq	%rbp
	.cfi_def_cfa_offset 16
	.cfi_offset 6, -16
.LBB17015:
.LBB17013:
	.loc 2 37 12 view .LVU1418
	xorl	%edi, %edi
.LBE17013:
.LBE17015:
	.loc 2 2374 1 view .LVU1419
	movq	%rsp, %rbp
	.cfi_def_cfa_register 6
.LBB17016:
.LBB17014:
	.loc 2 37 12 view .LVU1420
	call	_ZN5riscv10fenv_setrmEi
.LVL326:
	.loc 2 37 18 is_stmt 1 view .LVU1421
	.loc 2 38 2 view .LVU1422
	.loc 2 38 2 is_stmt 0 view .LVU1423
.LBE17014:
.LBE17016:
	.loc 2 2379 2 is_stmt 1 view .LVU1424
.LBB17017:
.LBI17017:
	.loc 4 105 1 view .LVU1425
.LBB17018:
	.loc 4 107 3 view .LVU1426
	.loc 4 107 23 is_stmt 0 view .LVU1427
	movl	$1, %edi
	movl	$1, %eax
.LBE17018:
.LBE17017:
	.loc 2 2380 1 view .LVU1428
	popq	%rbp
	.cfi_def_cfa 7, 8
.LBB17020:
.LBB17019:
	.loc 4 107 23 view .LVU1429
	movsd	.LC47(%rip), %xmm0
	leaq	.LC13(%rip), %rsi
	jmp	__printf_chk@PLT
.LVL327:
.LBE17019:
.LBE17020:
	.cfi_endproc
.LFE807:
	.size	_Z14test_fmsub_s_3v, .-_Z14test_fmsub_s_3v
	.p2align 4
	.globl	_Z14test_fmsub_s_4v
	.type	_Z14test_fmsub_s_4v, @function
_Z14test_fmsub_s_4v:
.LFB808:
	.loc 2 2383 1 is_stmt 1 view -0
	.cfi_startproc
	endbr64
	.loc 2 2384 2 view .LVU1431
.LVL328:
	.loc 2 2385 2 view .LVU1432
	.loc 2 2386 2 view .LVU1433
	.loc 2 2387 2 view .LVU1434
.LBB17025:
.LBI17025:
	.loc 2 34 16 view .LVU1435
.LBB17026:
	.loc 2 36 2 view .LVU1436
	.loc 2 37 2 view .LVU1437
.LBE17026:
.LBE17025:
	.loc 2 2383 1 is_stmt 0 view .LVU1438
	pushq	%rbp
	.cfi_def_cfa_offset 16
	.cfi_offset 6, -16
.LBB17029:
.LBB17027:
	.loc 2 37 12 view .LVU1439
	xorl	%edi, %edi
.LBE17027:
.LBE17029:
	.loc 2 2383 1 view .LVU1440
	movq	%rsp, %rbp
	.cfi_def_cfa_register 6
.LBB17030:
.LBB17028:
	.loc 2 37 12 view .LVU1441
	call	_ZN5riscv10fenv_setrmEi
.LVL329:
	.loc 2 37 18 is_stmt 1 view .LVU1442
	.loc 2 38 2 view .LVU1443
	.loc 2 38 2 is_stmt 0 view .LVU1444
.LBE17028:
.LBE17030:
	.loc 2 2388 2 is_stmt 1 view .LVU1445
.LBB17031:
.LBI17031:
	.loc 4 105 1 view .LVU1446
.LBB17032:
	.loc 4 107 3 view .LVU1447
	.loc 4 107 23 is_stmt 0 view .LVU1448
	movl	$1, %edi
	movl	$1, %eax
.LBE17032:
.LBE17031:
	.loc 2 2389 1 view .LVU1449
	popq	%rbp
	.cfi_def_cfa 7, 8
.LBB17034:
.LBB17033:
	.loc 4 107 23 view .LVU1450
	movsd	.LC48(%rip), %xmm0
	leaq	.LC13(%rip), %rsi
	jmp	__printf_chk@PLT
.LVL330:
.LBE17033:
.LBE17034:
	.cfi_endproc
.LFE808:
	.size	_Z14test_fmsub_s_4v, .-_Z14test_fmsub_s_4v
	.p2align 4
	.globl	_Z14test_fmsub_s_5v
	.type	_Z14test_fmsub_s_5v, @function
_Z14test_fmsub_s_5v:
.LFB4341:
	.cfi_startproc
	endbr64
	pushq	%rbp
	.cfi_def_cfa_offset 16
	.cfi_offset 6, -16
	xorl	%edi, %edi
	movq	%rsp, %rbp
	.cfi_def_cfa_register 6
	call	_ZN5riscv10fenv_setrmEi
	movl	$1, %edi
	movl	$1, %eax
	popq	%rbp
	.cfi_def_cfa 7, 8
	movsd	.LC30(%rip), %xmm0
	leaq	.LC13(%rip), %rsi
	jmp	__printf_chk@PLT
	.cfi_endproc
.LFE4341:
	.size	_Z14test_fmsub_s_5v, .-_Z14test_fmsub_s_5v
	.p2align 4
	.globl	_Z14test_fmsub_s_6v
	.type	_Z14test_fmsub_s_6v, @function
_Z14test_fmsub_s_6v:
.LFB3555:
	.cfi_startproc
	endbr64
	jmp	_Z14test_fmadd_s_6v
	.cfi_endproc
.LFE3555:
	.size	_Z14test_fmsub_s_6v, .-_Z14test_fmsub_s_6v
	.p2align 4
	.globl	_Z14test_fmsub_s_7v
	.type	_Z14test_fmsub_s_7v, @function
_Z14test_fmsub_s_7v:
.LFB4133:
	.cfi_startproc
	endbr64
	pushq	%rbp
	.cfi_def_cfa_offset 16
	.cfi_offset 6, -16
	xorl	%edi, %edi
	movq	%rsp, %rbp
	.cfi_def_cfa_register 6
	call	_ZN5riscv10fenv_setrmEi
	movl	$1, %edi
	movl	$1, %eax
	popq	%rbp
	.cfi_def_cfa 7, 8
	movsd	.LC20(%rip), %xmm0
	leaq	.LC13(%rip), %rsi
	jmp	__printf_chk@PLT
	.cfi_endproc
.LFE4133:
	.size	_Z14test_fmsub_s_7v, .-_Z14test_fmsub_s_7v
	.p2align 4
	.globl	_Z14test_fmsub_s_8v
	.type	_Z14test_fmsub_s_8v, @function
_Z14test_fmsub_s_8v:
.LFB4119:
	.cfi_startproc
	endbr64
	pushq	%rbp
	.cfi_def_cfa_offset 16
	.cfi_offset 6, -16
	xorl	%edi, %edi
	movq	%rsp, %rbp
	.cfi_def_cfa_register 6
	call	_ZN5riscv10fenv_setrmEi
	movl	$1, %edi
	movl	$1, %eax
	popq	%rbp
	.cfi_def_cfa 7, 8
	movsd	.LC19(%rip), %xmm0
	leaq	.LC13(%rip), %rsi
	jmp	__printf_chk@PLT
	.cfi_endproc
.LFE4119:
	.size	_Z14test_fmsub_s_8v, .-_Z14test_fmsub_s_8v
	.p2align 4
	.globl	_Z14test_fmsub_s_9v
	.type	_Z14test_fmsub_s_9v, @function
_Z14test_fmsub_s_9v:
.LFB813:
	.loc 2 2428 1 is_stmt 1 view -0
	.cfi_startproc
	endbr64
	.loc 2 2429 2 view .LVU1452
.LVL331:
	.loc 2 2430 2 view .LVU1453
	.loc 2 2431 2 view .LVU1454
	.loc 2 2432 2 view .LVU1455
.LBB17039:
.LBI17039:
	.loc 2 34 16 view .LVU1456
.LBB17040:
	.loc 2 36 2 view .LVU1457
	.loc 2 37 2 view .LVU1458
.LBE17040:
.LBE17039:
	.loc 2 2428 1 is_stmt 0 view .LVU1459
	pushq	%rbp
	.cfi_def_cfa_offset 16
	.cfi_offset 6, -16
.LBB17043:
.LBB17041:
	.loc 2 37 12 view .LVU1460
	xorl	%edi, %edi
.LBE17041:
.LBE17043:
	.loc 2 2428 1 view .LVU1461
	movq	%rsp, %rbp
	.cfi_def_cfa_register 6
.LBB17044:
.LBB17042:
	.loc 2 37 12 view .LVU1462
	call	_ZN5riscv10fenv_setrmEi
.LVL332:
	.loc 2 37 18 is_stmt 1 view .LVU1463
	.loc 2 38 2 view .LVU1464
	.loc 2 38 2 is_stmt 0 view .LVU1465
.LBE17042:
.LBE17044:
	.loc 2 2433 2 is_stmt 1 view .LVU1466
.LBB17045:
.LBI17045:
	.loc 4 105 1 view .LVU1467
.LBB17046:
	.loc 4 107 3 view .LVU1468
	.loc 4 107 23 is_stmt 0 view .LVU1469
	movl	$1, %edi
	movl	$1, %eax
.LBE17046:
.LBE17045:
	.loc 2 2434 1 view .LVU1470
	popq	%rbp
	.cfi_def_cfa 7, 8
.LBB17048:
.LBB17047:
	.loc 4 107 23 view .LVU1471
	movsd	.LC49(%rip), %xmm0
	leaq	.LC13(%rip), %rsi
	jmp	__printf_chk@PLT
.LVL333:
.LBE17047:
.LBE17048:
	.cfi_endproc
.LFE813:
	.size	_Z14test_fmsub_s_9v, .-_Z14test_fmsub_s_9v
	.p2align 4
	.globl	_Z15test_fmsub_s_10v
	.type	_Z15test_fmsub_s_10v, @function
_Z15test_fmsub_s_10v:
.LFB814:
	.loc 2 2437 1 is_stmt 1 view -0
	.cfi_startproc
	endbr64
	.loc 2 2438 2 view .LVU1473
.LVL334:
	.loc 2 2439 2 view .LVU1474
	.loc 2 2440 2 view .LVU1475
	.loc 2 2441 2 view .LVU1476
.LBB17053:
.LBI17053:
	.loc 2 34 16 view .LVU1477
.LBB17054:
	.loc 2 36 2 view .LVU1478
	.loc 2 37 2 view .LVU1479
.LBE17054:
.LBE17053:
	.loc 2 2437 1 is_stmt 0 view .LVU1480
	pushq	%rbp
	.cfi_def_cfa_offset 16
	.cfi_offset 6, -16
.LBB17057:
.LBB17055:
	.loc 2 37 12 view .LVU1481
	xorl	%edi, %edi
.LBE17055:
.LBE17057:
	.loc 2 2437 1 view .LVU1482
	movq	%rsp, %rbp
	.cfi_def_cfa_register 6
.LBB17058:
.LBB17056:
	.loc 2 37 12 view .LVU1483
	call	_ZN5riscv10fenv_setrmEi
.LVL335:
	.loc 2 37 18 is_stmt 1 view .LVU1484
	.loc 2 38 2 view .LVU1485
	.loc 2 38 2 is_stmt 0 view .LVU1486
.LBE17056:
.LBE17058:
	.loc 2 2442 2 is_stmt 1 view .LVU1487
.LBB17059:
.LBI17059:
	.loc 4 105 1 view .LVU1488
.LBB17060:
	.loc 4 107 3 view .LVU1489
	.loc 4 107 23 is_stmt 0 view .LVU1490
	movl	$1, %edi
	movl	$1, %eax
.LBE17060:
.LBE17059:
	.loc 2 2443 1 view .LVU1491
	popq	%rbp
	.cfi_def_cfa 7, 8
.LBB17062:
.LBB17061:
	.loc 4 107 23 view .LVU1492
	movsd	.LC50(%rip), %xmm0
	leaq	.LC13(%rip), %rsi
	jmp	__printf_chk@PLT
.LVL336:
.LBE17061:
.LBE17062:
	.cfi_endproc
.LFE814:
	.size	_Z15test_fmsub_s_10v, .-_Z15test_fmsub_s_10v
	.p2align 4
	.globl	_Z15test_fmsub_s_11v
	.type	_Z15test_fmsub_s_11v, @function
_Z15test_fmsub_s_11v:
.LFB4343:
	.cfi_startproc
	endbr64
	pushq	%rbp
	.cfi_def_cfa_offset 16
	.cfi_offset 6, -16
	xorl	%edi, %edi
	movq	%rsp, %rbp
	.cfi_def_cfa_register 6
	call	_ZN5riscv10fenv_setrmEi
	movl	$1, %edi
	movl	$1, %eax
	popq	%rbp
	.cfi_def_cfa 7, 8
	movsd	.LC30(%rip), %xmm0
	leaq	.LC13(%rip), %rsi
	jmp	__printf_chk@PLT
	.cfi_endproc
.LFE4343:
	.size	_Z15test_fmsub_s_11v, .-_Z15test_fmsub_s_11v
	.p2align 4
	.globl	_Z15test_fmsub_s_12v
	.type	_Z15test_fmsub_s_12v, @function
_Z15test_fmsub_s_12v:
.LFB3557:
	.cfi_startproc
	endbr64
	jmp	_Z14test_fmadd_s_6v
	.cfi_endproc
.LFE3557:
	.size	_Z15test_fmsub_s_12v, .-_Z15test_fmsub_s_12v
	.p2align 4
	.globl	_Z15test_fmsub_s_13v
	.type	_Z15test_fmsub_s_13v, @function
_Z15test_fmsub_s_13v:
.LFB4183:
	.cfi_startproc
	endbr64
	pushq	%rbp
	.cfi_def_cfa_offset 16
	.cfi_offset 6, -16
	xorl	%edi, %edi
	movq	%rsp, %rbp
	.cfi_def_cfa_register 6
	call	_ZN5riscv10fenv_setrmEi
	movl	$1, %edi
	movl	$1, %eax
	popq	%rbp
	.cfi_def_cfa 7, 8
	movsd	.LC24(%rip), %xmm0
	leaq	.LC13(%rip), %rsi
	jmp	__printf_chk@PLT
	.cfi_endproc
.LFE4183:
	.size	_Z15test_fmsub_s_13v, .-_Z15test_fmsub_s_13v
	.p2align 4
	.globl	_Z15test_fmsub_s_14v
	.type	_Z15test_fmsub_s_14v, @function
_Z15test_fmsub_s_14v:
.LFB4163:
	.cfi_startproc
	endbr64
	pushq	%rbp
	.cfi_def_cfa_offset 16
	.cfi_offset 6, -16
	xorl	%edi, %edi
	movq	%rsp, %rbp
	.cfi_def_cfa_register 6
	call	_ZN5riscv10fenv_setrmEi
	movl	$1, %edi
	movl	$1, %eax
	popq	%rbp
	.cfi_def_cfa 7, 8
	movsd	.LC23(%rip), %xmm0
	leaq	.LC13(%rip), %rsi
	jmp	__printf_chk@PLT
	.cfi_endproc
.LFE4163:
	.size	_Z15test_fmsub_s_14v, .-_Z15test_fmsub_s_14v
	.p2align 4
	.globl	_Z15test_fmsub_s_15v
	.type	_Z15test_fmsub_s_15v, @function
_Z15test_fmsub_s_15v:
.LFB4301:
	.cfi_startproc
	endbr64
	pushq	%rbp
	.cfi_def_cfa_offset 16
	.cfi_offset 6, -16
	xorl	%edi, %edi
	movq	%rsp, %rbp
	.cfi_def_cfa_register 6
	call	_ZN5riscv10fenv_setrmEi
	movl	$1, %edi
	movl	$1, %eax
	popq	%rbp
	.cfi_def_cfa 7, 8
	movsd	.LC28(%rip), %xmm0
	leaq	.LC13(%rip), %rsi
	jmp	__printf_chk@PLT
	.cfi_endproc
.LFE4301:
	.size	_Z15test_fmsub_s_15v, .-_Z15test_fmsub_s_15v
	.p2align 4
	.globl	_Z15test_fmsub_s_16v
	.type	_Z15test_fmsub_s_16v, @function
_Z15test_fmsub_s_16v:
.LFB4635:
	.cfi_startproc
	endbr64
	pushq	%rbp
	.cfi_def_cfa_offset 16
	.cfi_offset 6, -16
	xorl	%edi, %edi
	movq	%rsp, %rbp
	.cfi_def_cfa_register 6
	call	_ZN5riscv10fenv_setrmEi
	movl	$1, %edi
	movl	$1, %eax
	popq	%rbp
	.cfi_def_cfa 7, 8
	movsd	.LC11(%rip), %xmm0
	leaq	.LC13(%rip), %rsi
	jmp	__printf_chk@PLT
	.cfi_endproc
.LFE4635:
	.size	_Z15test_fmsub_s_16v, .-_Z15test_fmsub_s_16v
	.p2align 4
	.globl	_Z15test_fmsub_s_17v
	.type	_Z15test_fmsub_s_17v, @function
_Z15test_fmsub_s_17v:
.LFB4345:
	.cfi_startproc
	endbr64
	pushq	%rbp
	.cfi_def_cfa_offset 16
	.cfi_offset 6, -16
	xorl	%edi, %edi
	movq	%rsp, %rbp
	.cfi_def_cfa_register 6
	call	_ZN5riscv10fenv_setrmEi
	movl	$1, %edi
	movl	$1, %eax
	popq	%rbp
	.cfi_def_cfa 7, 8
	movsd	.LC30(%rip), %xmm0
	leaq	.LC13(%rip), %rsi
	jmp	__printf_chk@PLT
	.cfi_endproc
.LFE4345:
	.size	_Z15test_fmsub_s_17v, .-_Z15test_fmsub_s_17v
	.p2align 4
	.globl	_Z15test_fmsub_s_18v
	.type	_Z15test_fmsub_s_18v, @function
_Z15test_fmsub_s_18v:
.LFB3559:
	.cfi_startproc
	endbr64
	jmp	_Z14test_fmadd_s_6v
	.cfi_endproc
.LFE3559:
	.size	_Z15test_fmsub_s_18v, .-_Z15test_fmsub_s_18v
	.p2align 4
	.globl	_Z15test_fmsub_s_19v
	.type	_Z15test_fmsub_s_19v, @function
_Z15test_fmsub_s_19v:
.LFB4269:
	.cfi_startproc
	endbr64
	pushq	%rbp
	.cfi_def_cfa_offset 16
	.cfi_offset 6, -16
	xorl	%edi, %edi
	movq	%rsp, %rbp
	.cfi_def_cfa_register 6
	call	_ZN5riscv10fenv_setrmEi
	movl	$1, %edi
	movl	$1, %eax
	popq	%rbp
	.cfi_def_cfa 7, 8
	movsd	.LC27(%rip), %xmm0
	leaq	.LC13(%rip), %rsi
	jmp	__printf_chk@PLT
	.cfi_endproc
.LFE4269:
	.size	_Z15test_fmsub_s_19v, .-_Z15test_fmsub_s_19v
	.p2align 4
	.globl	_Z15test_fmsub_s_20v
	.type	_Z15test_fmsub_s_20v, @function
_Z15test_fmsub_s_20v:
.LFB4251:
	.cfi_startproc
	endbr64
	pushq	%rbp
	.cfi_def_cfa_offset 16
	.cfi_offset 6, -16
	xorl	%edi, %edi
	movq	%rsp, %rbp
	.cfi_def_cfa_register 6
	call	_ZN5riscv10fenv_setrmEi
	movl	$1, %edi
	movl	$1, %eax
	popq	%rbp
	.cfi_def_cfa 7, 8
	movsd	.LC26(%rip), %xmm0
	leaq	.LC13(%rip), %rsi
	jmp	__printf_chk@PLT
	.cfi_endproc
.LFE4251:
	.size	_Z15test_fmsub_s_20v, .-_Z15test_fmsub_s_20v
	.p2align 4
	.globl	_Z15test_fmsub_s_21v
	.type	_Z15test_fmsub_s_21v, @function
_Z15test_fmsub_s_21v:
.LFB825:
	.loc 2 2536 1 is_stmt 1 view -0
	.cfi_startproc
	endbr64
	.loc 2 2537 2 view .LVU1494
.LVL337:
	.loc 2 2538 2 view .LVU1495
	.loc 2 2539 2 view .LVU1496
	.loc 2 2540 2 view .LVU1497
.LBB17067:
.LBI17067:
	.loc 2 34 16 view .LVU1498
.LBB17068:
	.loc 2 36 2 view .LVU1499
	.loc 2 37 2 view .LVU1500
.LBE17068:
.LBE17067:
	.loc 2 2536 1 is_stmt 0 view .LVU1501
	pushq	%rbp
	.cfi_def_cfa_offset 16
	.cfi_offset 6, -16
.LBB17071:
.LBB17069:
	.loc 2 37 12 view .LVU1502
	xorl	%edi, %edi
.LBE17069:
.LBE17071:
	.loc 2 2536 1 view .LVU1503
	movq	%rsp, %rbp
	.cfi_def_cfa_register 6
.LBB17072:
.LBB17070:
	.loc 2 37 12 view .LVU1504
	call	_ZN5riscv10fenv_setrmEi
.LVL338:
	.loc 2 37 18 is_stmt 1 view .LVU1505
	.loc 2 38 2 view .LVU1506
	.loc 2 38 2 is_stmt 0 view .LVU1507
.LBE17070:
.LBE17072:
	.loc 2 2541 2 is_stmt 1 view .LVU1508
.LBB17073:
.LBI17073:
	.loc 4 105 1 view .LVU1509
.LBB17074:
	.loc 4 107 3 view .LVU1510
	.loc 4 107 23 is_stmt 0 view .LVU1511
	movl	$1, %edi
	movl	$1, %eax
.LBE17074:
.LBE17073:
	.loc 2 2542 1 view .LVU1512
	popq	%rbp
	.cfi_def_cfa 7, 8
.LBB17076:
.LBB17075:
	.loc 4 107 23 view .LVU1513
	movsd	.LC51(%rip), %xmm0
	leaq	.LC13(%rip), %rsi
	jmp	__printf_chk@PLT
.LVL339:
.LBE17075:
.LBE17076:
	.cfi_endproc
.LFE825:
	.size	_Z15test_fmsub_s_21v, .-_Z15test_fmsub_s_21v
	.p2align 4
	.globl	_Z15test_fmsub_s_22v
	.type	_Z15test_fmsub_s_22v, @function
_Z15test_fmsub_s_22v:
.LFB4567:
	.cfi_startproc
	endbr64
	pushq	%rbp
	.cfi_def_cfa_offset 16
	.cfi_offset 6, -16
	xorl	%edi, %edi
	movq	%rsp, %rbp
	.cfi_def_cfa_register 6
	call	_ZN5riscv10fenv_setrmEi
	movl	$1, %edi
	movl	$1, %eax
	popq	%rbp
	.cfi_def_cfa 7, 8
	movsd	.LC31(%rip), %xmm0
	leaq	.LC13(%rip), %rsi
	jmp	__printf_chk@PLT
	.cfi_endproc
.LFE4567:
	.size	_Z15test_fmsub_s_22v, .-_Z15test_fmsub_s_22v
	.p2align 4
	.globl	_Z15test_fmsub_s_23v
	.type	_Z15test_fmsub_s_23v, @function
_Z15test_fmsub_s_23v:
.LFB4347:
	.cfi_startproc
	endbr64
	pushq	%rbp
	.cfi_def_cfa_offset 16
	.cfi_offset 6, -16
	xorl	%edi, %edi
	movq	%rsp, %rbp
	.cfi_def_cfa_register 6
	call	_ZN5riscv10fenv_setrmEi
	movl	$1, %edi
	movl	$1, %eax
	popq	%rbp
	.cfi_def_cfa 7, 8
	movsd	.LC30(%rip), %xmm0
	leaq	.LC13(%rip), %rsi
	jmp	__printf_chk@PLT
	.cfi_endproc
.LFE4347:
	.size	_Z15test_fmsub_s_23v, .-_Z15test_fmsub_s_23v
	.p2align 4
	.globl	_Z15test_fmsub_s_24v
	.type	_Z15test_fmsub_s_24v, @function
_Z15test_fmsub_s_24v:
.LFB3561:
	.cfi_startproc
	endbr64
	jmp	_Z14test_fmadd_s_6v
	.cfi_endproc
.LFE3561:
	.size	_Z15test_fmsub_s_24v, .-_Z15test_fmsub_s_24v
	.p2align 4
	.globl	_Z15test_fmsub_s_25v
	.type	_Z15test_fmsub_s_25v, @function
_Z15test_fmsub_s_25v:
.LFB4349:
	.cfi_startproc
	endbr64
	pushq	%rbp
	.cfi_def_cfa_offset 16
	.cfi_offset 6, -16
	xorl	%edi, %edi
	movq	%rsp, %rbp
	.cfi_def_cfa_register 6
	call	_ZN5riscv10fenv_setrmEi
	movl	$1, %edi
	movl	$1, %eax
	popq	%rbp
	.cfi_def_cfa 7, 8
	movsd	.LC30(%rip), %xmm0
	leaq	.LC13(%rip), %rsi
	jmp	__printf_chk@PLT
	.cfi_endproc
.LFE4349:
	.size	_Z15test_fmsub_s_25v, .-_Z15test_fmsub_s_25v
	.p2align 4
	.globl	_Z15test_fmsub_s_26v
	.type	_Z15test_fmsub_s_26v, @function
_Z15test_fmsub_s_26v:
.LFB4351:
	.cfi_startproc
	endbr64
	pushq	%rbp
	.cfi_def_cfa_offset 16
	.cfi_offset 6, -16
	xorl	%edi, %edi
	movq	%rsp, %rbp
	.cfi_def_cfa_register 6
	call	_ZN5riscv10fenv_setrmEi
	movl	$1, %edi
	movl	$1, %eax
	popq	%rbp
	.cfi_def_cfa 7, 8
	movsd	.LC30(%rip), %xmm0
	leaq	.LC13(%rip), %rsi
	jmp	__printf_chk@PLT
	.cfi_endproc
.LFE4351:
	.size	_Z15test_fmsub_s_26v, .-_Z15test_fmsub_s_26v
	.p2align 4
	.globl	_Z15test_fmsub_s_27v
	.type	_Z15test_fmsub_s_27v, @function
_Z15test_fmsub_s_27v:
.LFB4353:
	.cfi_startproc
	endbr64
	jmp	_Z15test_fmadd_s_25v
	.cfi_endproc
.LFE4353:
	.size	_Z15test_fmsub_s_27v, .-_Z15test_fmsub_s_27v
	.p2align 4
	.globl	_Z15test_fmsub_s_28v
	.type	_Z15test_fmsub_s_28v, @function
_Z15test_fmsub_s_28v:
.LFB4355:
	.cfi_startproc
	endbr64
	jmp	_Z15test_fmadd_s_25v
	.cfi_endproc
.LFE4355:
	.size	_Z15test_fmsub_s_28v, .-_Z15test_fmsub_s_28v
	.p2align 4
	.globl	_Z15test_fmsub_s_29v
	.type	_Z15test_fmsub_s_29v, @function
_Z15test_fmsub_s_29v:
.LFB4357:
	.cfi_startproc
	endbr64
	jmp	_Z15test_fmadd_s_25v
	.cfi_endproc
.LFE4357:
	.size	_Z15test_fmsub_s_29v, .-_Z15test_fmsub_s_29v
	.p2align 4
	.globl	_Z15test_fmsub_s_30v
	.type	_Z15test_fmsub_s_30v, @function
_Z15test_fmsub_s_30v:
.LFB3563:
	.cfi_startproc
	endbr64
	jmp	_Z14test_fmadd_s_6v
	.cfi_endproc
.LFE3563:
	.size	_Z15test_fmsub_s_30v, .-_Z15test_fmsub_s_30v
	.p2align 4
	.globl	_Z15test_fmsub_s_31v
	.type	_Z15test_fmsub_s_31v, @function
_Z15test_fmsub_s_31v:
.LFB3565:
	.cfi_startproc
	endbr64
	jmp	_Z14test_fmadd_s_6v
	.cfi_endproc
.LFE3565:
	.size	_Z15test_fmsub_s_31v, .-_Z15test_fmsub_s_31v
	.p2align 4
	.globl	_Z15test_fmsub_s_32v
	.type	_Z15test_fmsub_s_32v, @function
_Z15test_fmsub_s_32v:
.LFB3567:
	.cfi_startproc
	endbr64
	jmp	_Z14test_fmadd_s_6v
	.cfi_endproc
.LFE3567:
	.size	_Z15test_fmsub_s_32v, .-_Z15test_fmsub_s_32v
	.p2align 4
	.globl	_Z15test_fmsub_s_33v
	.type	_Z15test_fmsub_s_33v, @function
_Z15test_fmsub_s_33v:
.LFB3569:
	.cfi_startproc
	endbr64
	jmp	_Z14test_fmadd_s_6v
	.cfi_endproc
.LFE3569:
	.size	_Z15test_fmsub_s_33v, .-_Z15test_fmsub_s_33v
	.p2align 4
	.globl	_Z15test_fmsub_s_34v
	.type	_Z15test_fmsub_s_34v, @function
_Z15test_fmsub_s_34v:
.LFB3571:
	.cfi_startproc
	endbr64
	jmp	_Z14test_fmadd_s_6v
	.cfi_endproc
.LFE3571:
	.size	_Z15test_fmsub_s_34v, .-_Z15test_fmsub_s_34v
	.p2align 4
	.globl	_Z15test_fmsub_s_35v
	.type	_Z15test_fmsub_s_35v, @function
_Z15test_fmsub_s_35v:
.LFB3573:
	.cfi_startproc
	endbr64
	jmp	_Z14test_fmadd_s_6v
	.cfi_endproc
.LFE3573:
	.size	_Z15test_fmsub_s_35v, .-_Z15test_fmsub_s_35v
	.p2align 4
	.globl	_Z15test_fmsub_s_36v
	.type	_Z15test_fmsub_s_36v, @function
_Z15test_fmsub_s_36v:
.LFB3575:
	.cfi_startproc
	endbr64
	jmp	_Z14test_fmadd_s_6v
	.cfi_endproc
.LFE3575:
	.size	_Z15test_fmsub_s_36v, .-_Z15test_fmsub_s_36v
	.p2align 4
	.globl	_Z15test_fmsub_s_37v
	.type	_Z15test_fmsub_s_37v, @function
_Z15test_fmsub_s_37v:
.LFB4135:
	.cfi_startproc
	endbr64
	pushq	%rbp
	.cfi_def_cfa_offset 16
	.cfi_offset 6, -16
	xorl	%edi, %edi
	movq	%rsp, %rbp
	.cfi_def_cfa_register 6
	call	_ZN5riscv10fenv_setrmEi
	movl	$1, %edi
	movl	$1, %eax
	popq	%rbp
	.cfi_def_cfa 7, 8
	movsd	.LC20(%rip), %xmm0
	leaq	.LC13(%rip), %rsi
	jmp	__printf_chk@PLT
	.cfi_endproc
.LFE4135:
	.size	_Z15test_fmsub_s_37v, .-_Z15test_fmsub_s_37v
	.p2align 4
	.globl	_Z15test_fmsub_s_38v
	.type	_Z15test_fmsub_s_38v, @function
_Z15test_fmsub_s_38v:
.LFB4121:
	.cfi_startproc
	endbr64
	pushq	%rbp
	.cfi_def_cfa_offset 16
	.cfi_offset 6, -16
	xorl	%edi, %edi
	movq	%rsp, %rbp
	.cfi_def_cfa_register 6
	call	_ZN5riscv10fenv_setrmEi
	movl	$1, %edi
	movl	$1, %eax
	popq	%rbp
	.cfi_def_cfa 7, 8
	movsd	.LC19(%rip), %xmm0
	leaq	.LC13(%rip), %rsi
	jmp	__printf_chk@PLT
	.cfi_endproc
.LFE4121:
	.size	_Z15test_fmsub_s_38v, .-_Z15test_fmsub_s_38v
	.p2align 4
	.globl	_Z15test_fmsub_s_39v
	.type	_Z15test_fmsub_s_39v, @function
_Z15test_fmsub_s_39v:
.LFB4755:
	.cfi_startproc
	endbr64
	pushq	%rbp
	.cfi_def_cfa_offset 16
	.cfi_offset 6, -16
	xorl	%edi, %edi
	movq	%rsp, %rbp
	.cfi_def_cfa_register 6
	call	_ZN5riscv10fenv_setrmEi
	movl	$1, %edi
	movl	$1, %eax
	popq	%rbp
	.cfi_def_cfa 7, 8
	movsd	.LC49(%rip), %xmm0
	leaq	.LC13(%rip), %rsi
	jmp	__printf_chk@PLT
	.cfi_endproc
.LFE4755:
	.size	_Z15test_fmsub_s_39v, .-_Z15test_fmsub_s_39v
	.p2align 4
	.globl	_Z15test_fmsub_s_40v
	.type	_Z15test_fmsub_s_40v, @function
_Z15test_fmsub_s_40v:
.LFB4761:
	.cfi_startproc
	endbr64
	pushq	%rbp
	.cfi_def_cfa_offset 16
	.cfi_offset 6, -16
	xorl	%edi, %edi
	movq	%rsp, %rbp
	.cfi_def_cfa_register 6
	call	_ZN5riscv10fenv_setrmEi
	movl	$1, %edi
	movl	$1, %eax
	popq	%rbp
	.cfi_def_cfa 7, 8
	movsd	.LC50(%rip), %xmm0
	leaq	.LC13(%rip), %rsi
	jmp	__printf_chk@PLT
	.cfi_endproc
.LFE4761:
	.size	_Z15test_fmsub_s_40v, .-_Z15test_fmsub_s_40v
	.p2align 4
	.globl	_Z15test_fmsub_s_41v
	.type	_Z15test_fmsub_s_41v, @function
_Z15test_fmsub_s_41v:
.LFB4359:
	.cfi_startproc
	endbr64
	pushq	%rbp
	.cfi_def_cfa_offset 16
	.cfi_offset 6, -16
	xorl	%edi, %edi
	movq	%rsp, %rbp
	.cfi_def_cfa_register 6
	call	_ZN5riscv10fenv_setrmEi
	movl	$1, %edi
	movl	$1, %eax
	popq	%rbp
	.cfi_def_cfa 7, 8
	movsd	.LC30(%rip), %xmm0
	leaq	.LC13(%rip), %rsi
	jmp	__printf_chk@PLT
	.cfi_endproc
.LFE4359:
	.size	_Z15test_fmsub_s_41v, .-_Z15test_fmsub_s_41v
	.p2align 4
	.globl	_Z15test_fmsub_s_42v
	.type	_Z15test_fmsub_s_42v, @function
_Z15test_fmsub_s_42v:
.LFB3577:
	.cfi_startproc
	endbr64
	jmp	_Z14test_fmadd_s_6v
	.cfi_endproc
.LFE3577:
	.size	_Z15test_fmsub_s_42v, .-_Z15test_fmsub_s_42v
	.p2align 4
	.globl	_Z15test_fmsub_s_43v
	.type	_Z15test_fmsub_s_43v, @function
_Z15test_fmsub_s_43v:
.LFB3077:
	.cfi_startproc
	endbr64
	pushq	%rbp
	.cfi_def_cfa_offset 16
	.cfi_offset 6, -16
	xorl	%edi, %edi
	movq	%rsp, %rbp
	.cfi_def_cfa_register 6
	call	_ZN5riscv10fenv_setrmEi
	movl	$1, %edi
	movl	$1, %eax
	popq	%rbp
	.cfi_def_cfa 7, 8
	movsd	.LC14(%rip), %xmm0
	leaq	.LC13(%rip), %rsi
	jmp	__printf_chk@PLT
	.cfi_endproc
.LFE3077:
	.size	_Z15test_fmsub_s_43v, .-_Z15test_fmsub_s_43v
	.p2align 4
	.globl	_Z15test_fmsub_s_44v
	.type	_Z15test_fmsub_s_44v, @function
_Z15test_fmsub_s_44v:
.LFB3055:
	.cfi_startproc
	endbr64
	pushq	%rbp
	.cfi_def_cfa_offset 16
	.cfi_offset 6, -16
	xorl	%edi, %edi
	movq	%rsp, %rbp
	.cfi_def_cfa_register 6
	call	_ZN5riscv10fenv_setrmEi
	movl	$1, %edi
	movl	$1, %eax
	popq	%rbp
	.cfi_def_cfa 7, 8
	movsd	.LC12(%rip), %xmm0
	leaq	.LC13(%rip), %rsi
	jmp	__printf_chk@PLT
	.cfi_endproc
.LFE3055:
	.size	_Z15test_fmsub_s_44v, .-_Z15test_fmsub_s_44v
	.p2align 4
	.globl	_Z15test_fmsub_s_45v
	.type	_Z15test_fmsub_s_45v, @function
_Z15test_fmsub_s_45v:
.LFB4743:
	.cfi_startproc
	endbr64
	pushq	%rbp
	.cfi_def_cfa_offset 16
	.cfi_offset 6, -16
	xorl	%edi, %edi
	movq	%rsp, %rbp
	.cfi_def_cfa_register 6
	call	_ZN5riscv10fenv_setrmEi
	movl	$1, %edi
	movl	$1, %eax
	popq	%rbp
	.cfi_def_cfa 7, 8
	movsd	.LC47(%rip), %xmm0
	leaq	.LC13(%rip), %rsi
	jmp	__printf_chk@PLT
	.cfi_endproc
.LFE4743:
	.size	_Z15test_fmsub_s_45v, .-_Z15test_fmsub_s_45v
	.p2align 4
	.globl	_Z15test_fmsub_s_46v
	.type	_Z15test_fmsub_s_46v, @function
_Z15test_fmsub_s_46v:
.LFB4749:
	.cfi_startproc
	endbr64
	pushq	%rbp
	.cfi_def_cfa_offset 16
	.cfi_offset 6, -16
	xorl	%edi, %edi
	movq	%rsp, %rbp
	.cfi_def_cfa_register 6
	call	_ZN5riscv10fenv_setrmEi
	movl	$1, %edi
	movl	$1, %eax
	popq	%rbp
	.cfi_def_cfa 7, 8
	movsd	.LC48(%rip), %xmm0
	leaq	.LC13(%rip), %rsi
	jmp	__printf_chk@PLT
	.cfi_endproc
.LFE4749:
	.size	_Z15test_fmsub_s_46v, .-_Z15test_fmsub_s_46v
	.p2align 4
	.globl	_Z15test_fmsub_s_47v
	.type	_Z15test_fmsub_s_47v, @function
_Z15test_fmsub_s_47v:
.LFB4361:
	.cfi_startproc
	endbr64
	pushq	%rbp
	.cfi_def_cfa_offset 16
	.cfi_offset 6, -16
	xorl	%edi, %edi
	movq	%rsp, %rbp
	.cfi_def_cfa_register 6
	call	_ZN5riscv10fenv_setrmEi
	movl	$1, %edi
	movl	$1, %eax
	popq	%rbp
	.cfi_def_cfa 7, 8
	movsd	.LC30(%rip), %xmm0
	leaq	.LC13(%rip), %rsi
	jmp	__printf_chk@PLT
	.cfi_endproc
.LFE4361:
	.size	_Z15test_fmsub_s_47v, .-_Z15test_fmsub_s_47v
	.p2align 4
	.globl	_Z15test_fmsub_s_48v
	.type	_Z15test_fmsub_s_48v, @function
_Z15test_fmsub_s_48v:
.LFB3579:
	.cfi_startproc
	endbr64
	jmp	_Z14test_fmadd_s_6v
	.cfi_endproc
.LFE3579:
	.size	_Z15test_fmsub_s_48v, .-_Z15test_fmsub_s_48v
	.p2align 4
	.globl	_Z15test_fmsub_s_49v
	.type	_Z15test_fmsub_s_49v, @function
_Z15test_fmsub_s_49v:
.LFB4595:
	.cfi_startproc
	endbr64
	pushq	%rbp
	.cfi_def_cfa_offset 16
	.cfi_offset 6, -16
	xorl	%edi, %edi
	movq	%rsp, %rbp
	.cfi_def_cfa_register 6
	call	_ZN5riscv10fenv_setrmEi
	movl	$1, %edi
	movl	$1, %eax
	popq	%rbp
	.cfi_def_cfa 7, 8
	movsd	.LC32(%rip), %xmm0
	leaq	.LC13(%rip), %rsi
	jmp	__printf_chk@PLT
	.cfi_endproc
.LFE4595:
	.size	_Z15test_fmsub_s_49v, .-_Z15test_fmsub_s_49v
	.p2align 4
	.globl	_Z15test_fmsub_s_50v
	.type	_Z15test_fmsub_s_50v, @function
_Z15test_fmsub_s_50v:
.LFB4569:
	.cfi_startproc
	endbr64
	pushq	%rbp
	.cfi_def_cfa_offset 16
	.cfi_offset 6, -16
	xorl	%edi, %edi
	movq	%rsp, %rbp
	.cfi_def_cfa_register 6
	call	_ZN5riscv10fenv_setrmEi
	movl	$1, %edi
	movl	$1, %eax
	popq	%rbp
	.cfi_def_cfa 7, 8
	movsd	.LC31(%rip), %xmm0
	leaq	.LC13(%rip), %rsi
	jmp	__printf_chk@PLT
	.cfi_endproc
.LFE4569:
	.size	_Z15test_fmsub_s_50v, .-_Z15test_fmsub_s_50v
	.p2align 4
	.globl	_Z15test_fmsub_s_51v
	.type	_Z15test_fmsub_s_51v, @function
_Z15test_fmsub_s_51v:
.LFB855:
	.loc 2 2806 1 is_stmt 1 view -0
	.cfi_startproc
	endbr64
	.loc 2 2807 2 view .LVU1515
.LVL340:
	.loc 2 2808 2 view .LVU1516
	.loc 2 2809 2 view .LVU1517
	.loc 2 2810 2 view .LVU1518
.LBB17081:
.LBI17081:
	.loc 2 34 16 view .LVU1519
.LBB17082:
	.loc 2 36 2 view .LVU1520
	.loc 2 37 2 view .LVU1521
.LBE17082:
.LBE17081:
	.loc 2 2806 1 is_stmt 0 view .LVU1522
	pushq	%rbp
	.cfi_def_cfa_offset 16
	.cfi_offset 6, -16
.LBB17085:
.LBB17083:
	.loc 2 37 12 view .LVU1523
	xorl	%edi, %edi
.LBE17083:
.LBE17085:
	.loc 2 2806 1 view .LVU1524
	movq	%rsp, %rbp
	.cfi_def_cfa_register 6
.LBB17086:
.LBB17084:
	.loc 2 37 12 view .LVU1525
	call	_ZN5riscv10fenv_setrmEi
.LVL341:
	.loc 2 37 18 is_stmt 1 view .LVU1526
	.loc 2 38 2 view .LVU1527
	.loc 2 38 2 is_stmt 0 view .LVU1528
.LBE17084:
.LBE17086:
	.loc 2 2811 2 is_stmt 1 view .LVU1529
.LBB17087:
.LBI17087:
	.loc 4 105 1 view .LVU1530
.LBB17088:
	.loc 4 107 3 view .LVU1531
	.loc 4 107 23 is_stmt 0 view .LVU1532
	movl	$1, %edi
	movl	$1, %eax
.LBE17088:
.LBE17087:
	.loc 2 2812 1 view .LVU1533
	popq	%rbp
	.cfi_def_cfa 7, 8
.LBB17090:
.LBB17089:
	.loc 4 107 23 view .LVU1534
	movsd	.LC52(%rip), %xmm0
	leaq	.LC13(%rip), %rsi
	jmp	__printf_chk@PLT
.LVL342:
.LBE17089:
.LBE17090:
	.cfi_endproc
.LFE855:
	.size	_Z15test_fmsub_s_51v, .-_Z15test_fmsub_s_51v
	.p2align 4
	.globl	_Z15test_fmsub_s_52v
	.type	_Z15test_fmsub_s_52v, @function
_Z15test_fmsub_s_52v:
.LFB4215:
	.cfi_startproc
	endbr64
	pushq	%rbp
	.cfi_def_cfa_offset 16
	.cfi_offset 6, -16
	xorl	%edi, %edi
	movq	%rsp, %rbp
	.cfi_def_cfa_register 6
	call	_ZN5riscv10fenv_setrmEi
	pxor	%xmm0, %xmm0
	movl	$1, %edi
	popq	%rbp
	.cfi_def_cfa 7, 8
	leaq	.LC13(%rip), %rsi
	movl	$1, %eax
	jmp	__printf_chk@PLT
	.cfi_endproc
.LFE4215:
	.size	_Z15test_fmsub_s_52v, .-_Z15test_fmsub_s_52v
	.p2align 4
	.globl	_Z15test_fmsub_s_53v
	.type	_Z15test_fmsub_s_53v, @function
_Z15test_fmsub_s_53v:
.LFB4363:
	.cfi_startproc
	endbr64
	jmp	_Z15test_fmadd_s_25v
	.cfi_endproc
.LFE4363:
	.size	_Z15test_fmsub_s_53v, .-_Z15test_fmsub_s_53v
	.p2align 4
	.globl	_Z15test_fmsub_s_54v
	.type	_Z15test_fmsub_s_54v, @function
_Z15test_fmsub_s_54v:
.LFB3581:
	.cfi_startproc
	endbr64
	jmp	_Z14test_fmadd_s_6v
	.cfi_endproc
.LFE3581:
	.size	_Z15test_fmsub_s_54v, .-_Z15test_fmsub_s_54v
	.p2align 4
	.globl	_Z15test_fmsub_s_55v
	.type	_Z15test_fmsub_s_55v, @function
_Z15test_fmsub_s_55v:
.LFB4665:
	.cfi_startproc
	endbr64
	pushq	%rbp
	.cfi_def_cfa_offset 16
	.cfi_offset 6, -16
	xorl	%edi, %edi
	movq	%rsp, %rbp
	.cfi_def_cfa_register 6
	call	_ZN5riscv10fenv_setrmEi
	movl	$1, %edi
	movl	$1, %eax
	popq	%rbp
	.cfi_def_cfa 7, 8
	movsd	.LC34(%rip), %xmm0
	leaq	.LC13(%rip), %rsi
	jmp	__printf_chk@PLT
	.cfi_endproc
.LFE4665:
	.size	_Z15test_fmsub_s_55v, .-_Z15test_fmsub_s_55v
	.p2align 4
	.globl	_Z15test_fmsub_s_56v
	.type	_Z15test_fmsub_s_56v, @function
_Z15test_fmsub_s_56v:
.LFB4637:
	.cfi_startproc
	endbr64
	pushq	%rbp
	.cfi_def_cfa_offset 16
	.cfi_offset 6, -16
	xorl	%edi, %edi
	movq	%rsp, %rbp
	.cfi_def_cfa_register 6
	call	_ZN5riscv10fenv_setrmEi
	movl	$1, %edi
	movl	$1, %eax
	popq	%rbp
	.cfi_def_cfa 7, 8
	movsd	.LC11(%rip), %xmm0
	leaq	.LC13(%rip), %rsi
	jmp	__printf_chk@PLT
	.cfi_endproc
.LFE4637:
	.size	_Z15test_fmsub_s_56v, .-_Z15test_fmsub_s_56v
	.p2align 4
	.globl	_Z15test_fmsub_s_57v
	.type	_Z15test_fmsub_s_57v, @function
_Z15test_fmsub_s_57v:
.LFB4617:
	.cfi_startproc
	endbr64
	pushq	%rbp
	.cfi_def_cfa_offset 16
	.cfi_offset 6, -16
	xorl	%edi, %edi
	movq	%rsp, %rbp
	.cfi_def_cfa_register 6
	call	_ZN5riscv10fenv_setrmEi
	movl	$1, %edi
	movl	$1, %eax
	popq	%rbp
	.cfi_def_cfa 7, 8
	movsd	.LC33(%rip), %xmm0
	leaq	.LC13(%rip), %rsi
	jmp	__printf_chk@PLT
	.cfi_endproc
.LFE4617:
	.size	_Z15test_fmsub_s_57v, .-_Z15test_fmsub_s_57v
	.p2align 4
	.globl	_Z15test_fmsub_s_58v
	.type	_Z15test_fmsub_s_58v, @function
_Z15test_fmsub_s_58v:
.LFB4723:
	.cfi_startproc
	endbr64
	pushq	%rbp
	.cfi_def_cfa_offset 16
	.cfi_offset 6, -16
	xorl	%edi, %edi
	movq	%rsp, %rbp
	.cfi_def_cfa_register 6
	call	_ZN5riscv10fenv_setrmEi
	movl	$1, %edi
	movl	$1, %eax
	popq	%rbp
	.cfi_def_cfa 7, 8
	movsd	.LC46(%rip), %xmm0
	leaq	.LC13(%rip), %rsi
	jmp	__printf_chk@PLT
	.cfi_endproc
.LFE4723:
	.size	_Z15test_fmsub_s_58v, .-_Z15test_fmsub_s_58v
	.p2align 4
	.globl	_Z15test_fmsub_s_59v
	.type	_Z15test_fmsub_s_59v, @function
_Z15test_fmsub_s_59v:
.LFB4365:
	.cfi_startproc
	endbr64
	pushq	%rbp
	.cfi_def_cfa_offset 16
	.cfi_offset 6, -16
	xorl	%edi, %edi
	movq	%rsp, %rbp
	.cfi_def_cfa_register 6
	call	_ZN5riscv10fenv_setrmEi
	movl	$1, %edi
	movl	$1, %eax
	popq	%rbp
	.cfi_def_cfa 7, 8
	movsd	.LC30(%rip), %xmm0
	leaq	.LC13(%rip), %rsi
	jmp	__printf_chk@PLT
	.cfi_endproc
.LFE4365:
	.size	_Z15test_fmsub_s_59v, .-_Z15test_fmsub_s_59v
	.p2align 4
	.globl	_Z15test_fmsub_s_60v
	.type	_Z15test_fmsub_s_60v, @function
_Z15test_fmsub_s_60v:
.LFB3583:
	.cfi_startproc
	endbr64
	jmp	_Z14test_fmadd_s_6v
	.cfi_endproc
.LFE3583:
	.size	_Z15test_fmsub_s_60v, .-_Z15test_fmsub_s_60v
	.p2align 4
	.globl	_Z15test_fmsub_s_61v
	.type	_Z15test_fmsub_s_61v, @function
_Z15test_fmsub_s_61v:
.LFB3199:
	.cfi_startproc
	endbr64
	jmp	_Z14test_fmadd_s_5v
	.cfi_endproc
.LFE3199:
	.size	_Z15test_fmsub_s_61v, .-_Z15test_fmsub_s_61v
	.p2align 4
	.globl	_Z15test_fmsub_s_62v
	.type	_Z15test_fmsub_s_62v, @function
_Z15test_fmsub_s_62v:
.LFB3201:
	.cfi_startproc
	endbr64
	jmp	_Z14test_fmadd_s_5v
	.cfi_endproc
.LFE3201:
	.size	_Z15test_fmsub_s_62v, .-_Z15test_fmsub_s_62v
	.p2align 4
	.globl	_Z15test_fmsub_s_63v
	.type	_Z15test_fmsub_s_63v, @function
_Z15test_fmsub_s_63v:
.LFB3203:
	.cfi_startproc
	endbr64
	jmp	_Z14test_fmadd_s_5v
	.cfi_endproc
.LFE3203:
	.size	_Z15test_fmsub_s_63v, .-_Z15test_fmsub_s_63v
	.p2align 4
	.globl	_Z15test_fmsub_s_64v
	.type	_Z15test_fmsub_s_64v, @function
_Z15test_fmsub_s_64v:
.LFB3205:
	.cfi_startproc
	endbr64
	jmp	_Z14test_fmadd_s_5v
	.cfi_endproc
.LFE3205:
	.size	_Z15test_fmsub_s_64v, .-_Z15test_fmsub_s_64v
	.p2align 4
	.globl	_Z15test_fmsub_s_65v
	.type	_Z15test_fmsub_s_65v, @function
_Z15test_fmsub_s_65v:
.LFB3585:
	.cfi_startproc
	endbr64
	jmp	_Z14test_fmadd_s_6v
	.cfi_endproc
.LFE3585:
	.size	_Z15test_fmsub_s_65v, .-_Z15test_fmsub_s_65v
	.p2align 4
	.globl	_Z15test_fmsub_s_66v
	.type	_Z15test_fmsub_s_66v, @function
_Z15test_fmsub_s_66v:
.LFB3587:
	.cfi_startproc
	endbr64
	jmp	_Z14test_fmadd_s_6v
	.cfi_endproc
.LFE3587:
	.size	_Z15test_fmsub_s_66v, .-_Z15test_fmsub_s_66v
	.p2align 4
	.globl	_Z15test_fmsub_s_67v
	.type	_Z15test_fmsub_s_67v, @function
_Z15test_fmsub_s_67v:
.LFB3589:
	.cfi_startproc
	endbr64
	jmp	_Z14test_fmadd_s_6v
	.cfi_endproc
.LFE3589:
	.size	_Z15test_fmsub_s_67v, .-_Z15test_fmsub_s_67v
	.p2align 4
	.globl	_Z15test_fmsub_s_68v
	.type	_Z15test_fmsub_s_68v, @function
_Z15test_fmsub_s_68v:
.LFB3591:
	.cfi_startproc
	endbr64
	jmp	_Z14test_fmadd_s_6v
	.cfi_endproc
.LFE3591:
	.size	_Z15test_fmsub_s_68v, .-_Z15test_fmsub_s_68v
	.p2align 4
	.globl	_Z15test_fmsub_s_69v
	.type	_Z15test_fmsub_s_69v, @function
_Z15test_fmsub_s_69v:
.LFB3593:
	.cfi_startproc
	endbr64
	jmp	_Z14test_fmadd_s_6v
	.cfi_endproc
.LFE3593:
	.size	_Z15test_fmsub_s_69v, .-_Z15test_fmsub_s_69v
	.p2align 4
	.globl	_Z15test_fmsub_s_70v
	.type	_Z15test_fmsub_s_70v, @function
_Z15test_fmsub_s_70v:
.LFB3595:
	.cfi_startproc
	endbr64
	jmp	_Z14test_fmadd_s_6v
	.cfi_endproc
.LFE3595:
	.size	_Z15test_fmsub_s_70v, .-_Z15test_fmsub_s_70v
	.p2align 4
	.globl	_Z15test_fmsub_s_71v
	.type	_Z15test_fmsub_s_71v, @function
_Z15test_fmsub_s_71v:
.LFB3597:
	.cfi_startproc
	endbr64
	jmp	_Z14test_fmadd_s_6v
	.cfi_endproc
.LFE3597:
	.size	_Z15test_fmsub_s_71v, .-_Z15test_fmsub_s_71v
	.p2align 4
	.globl	_Z15test_fmsub_s_72v
	.type	_Z15test_fmsub_s_72v, @function
_Z15test_fmsub_s_72v:
.LFB3599:
	.cfi_startproc
	endbr64
	jmp	_Z14test_fmadd_s_6v
	.cfi_endproc
.LFE3599:
	.size	_Z15test_fmsub_s_72v, .-_Z15test_fmsub_s_72v
	.p2align 4
	.globl	_Z15test_fmsub_s_73v
	.type	_Z15test_fmsub_s_73v, @function
_Z15test_fmsub_s_73v:
.LFB4185:
	.cfi_startproc
	endbr64
	pushq	%rbp
	.cfi_def_cfa_offset 16
	.cfi_offset 6, -16
	xorl	%edi, %edi
	movq	%rsp, %rbp
	.cfi_def_cfa_register 6
	call	_ZN5riscv10fenv_setrmEi
	movl	$1, %edi
	movl	$1, %eax
	popq	%rbp
	.cfi_def_cfa 7, 8
	movsd	.LC24(%rip), %xmm0
	leaq	.LC13(%rip), %rsi
	jmp	__printf_chk@PLT
	.cfi_endproc
.LFE4185:
	.size	_Z15test_fmsub_s_73v, .-_Z15test_fmsub_s_73v
	.p2align 4
	.globl	_Z15test_fmsub_s_74v
	.type	_Z15test_fmsub_s_74v, @function
_Z15test_fmsub_s_74v:
.LFB4165:
	.cfi_startproc
	endbr64
	pushq	%rbp
	.cfi_def_cfa_offset 16
	.cfi_offset 6, -16
	xorl	%edi, %edi
	movq	%rsp, %rbp
	.cfi_def_cfa_register 6
	call	_ZN5riscv10fenv_setrmEi
	movl	$1, %edi
	movl	$1, %eax
	popq	%rbp
	.cfi_def_cfa 7, 8
	movsd	.LC23(%rip), %xmm0
	leaq	.LC13(%rip), %rsi
	jmp	__printf_chk@PLT
	.cfi_endproc
.LFE4165:
	.size	_Z15test_fmsub_s_74v, .-_Z15test_fmsub_s_74v
	.p2align 4
	.globl	_Z15test_fmsub_s_75v
	.type	_Z15test_fmsub_s_75v, @function
_Z15test_fmsub_s_75v:
.LFB4303:
	.cfi_startproc
	endbr64
	pushq	%rbp
	.cfi_def_cfa_offset 16
	.cfi_offset 6, -16
	xorl	%edi, %edi
	movq	%rsp, %rbp
	.cfi_def_cfa_register 6
	call	_ZN5riscv10fenv_setrmEi
	movl	$1, %edi
	movl	$1, %eax
	popq	%rbp
	.cfi_def_cfa 7, 8
	movsd	.LC28(%rip), %xmm0
	leaq	.LC13(%rip), %rsi
	jmp	__printf_chk@PLT
	.cfi_endproc
.LFE4303:
	.size	_Z15test_fmsub_s_75v, .-_Z15test_fmsub_s_75v
	.p2align 4
	.globl	_Z15test_fmsub_s_76v
	.type	_Z15test_fmsub_s_76v, @function
_Z15test_fmsub_s_76v:
.LFB4639:
	.cfi_startproc
	endbr64
	pushq	%rbp
	.cfi_def_cfa_offset 16
	.cfi_offset 6, -16
	xorl	%edi, %edi
	movq	%rsp, %rbp
	.cfi_def_cfa_register 6
	call	_ZN5riscv10fenv_setrmEi
	movl	$1, %edi
	movl	$1, %eax
	popq	%rbp
	.cfi_def_cfa 7, 8
	movsd	.LC11(%rip), %xmm0
	leaq	.LC13(%rip), %rsi
	jmp	__printf_chk@PLT
	.cfi_endproc
.LFE4639:
	.size	_Z15test_fmsub_s_76v, .-_Z15test_fmsub_s_76v
	.p2align 4
	.globl	_Z15test_fmsub_s_77v
	.type	_Z15test_fmsub_s_77v, @function
_Z15test_fmsub_s_77v:
.LFB4367:
	.cfi_startproc
	endbr64
	pushq	%rbp
	.cfi_def_cfa_offset 16
	.cfi_offset 6, -16
	xorl	%edi, %edi
	movq	%rsp, %rbp
	.cfi_def_cfa_register 6
	call	_ZN5riscv10fenv_setrmEi
	movl	$1, %edi
	movl	$1, %eax
	popq	%rbp
	.cfi_def_cfa 7, 8
	movsd	.LC30(%rip), %xmm0
	leaq	.LC13(%rip), %rsi
	jmp	__printf_chk@PLT
	.cfi_endproc
.LFE4367:
	.size	_Z15test_fmsub_s_77v, .-_Z15test_fmsub_s_77v
	.p2align 4
	.globl	_Z15test_fmsub_s_78v
	.type	_Z15test_fmsub_s_78v, @function
_Z15test_fmsub_s_78v:
.LFB3601:
	.cfi_startproc
	endbr64
	jmp	_Z14test_fmadd_s_6v
	.cfi_endproc
.LFE3601:
	.size	_Z15test_fmsub_s_78v, .-_Z15test_fmsub_s_78v
	.p2align 4
	.globl	_Z15test_fmsub_s_79v
	.type	_Z15test_fmsub_s_79v, @function
_Z15test_fmsub_s_79v:
.LFB4597:
	.cfi_startproc
	endbr64
	pushq	%rbp
	.cfi_def_cfa_offset 16
	.cfi_offset 6, -16
	xorl	%edi, %edi
	movq	%rsp, %rbp
	.cfi_def_cfa_register 6
	call	_ZN5riscv10fenv_setrmEi
	movl	$1, %edi
	movl	$1, %eax
	popq	%rbp
	.cfi_def_cfa 7, 8
	movsd	.LC32(%rip), %xmm0
	leaq	.LC13(%rip), %rsi
	jmp	__printf_chk@PLT
	.cfi_endproc
.LFE4597:
	.size	_Z15test_fmsub_s_79v, .-_Z15test_fmsub_s_79v
	.p2align 4
	.globl	_Z15test_fmsub_s_80v
	.type	_Z15test_fmsub_s_80v, @function
_Z15test_fmsub_s_80v:
.LFB4571:
	.cfi_startproc
	endbr64
	pushq	%rbp
	.cfi_def_cfa_offset 16
	.cfi_offset 6, -16
	xorl	%edi, %edi
	movq	%rsp, %rbp
	.cfi_def_cfa_register 6
	call	_ZN5riscv10fenv_setrmEi
	movl	$1, %edi
	movl	$1, %eax
	popq	%rbp
	.cfi_def_cfa 7, 8
	movsd	.LC31(%rip), %xmm0
	leaq	.LC13(%rip), %rsi
	jmp	__printf_chk@PLT
	.cfi_endproc
.LFE4571:
	.size	_Z15test_fmsub_s_80v, .-_Z15test_fmsub_s_80v
	.p2align 4
	.globl	_Z15test_fmsub_s_81v
	.type	_Z15test_fmsub_s_81v, @function
_Z15test_fmsub_s_81v:
.LFB4773:
	.cfi_startproc
	endbr64
	pushq	%rbp
	.cfi_def_cfa_offset 16
	.cfi_offset 6, -16
	xorl	%edi, %edi
	movq	%rsp, %rbp
	.cfi_def_cfa_register 6
	call	_ZN5riscv10fenv_setrmEi
	movl	$1, %edi
	movl	$1, %eax
	popq	%rbp
	.cfi_def_cfa 7, 8
	movsd	.LC52(%rip), %xmm0
	leaq	.LC13(%rip), %rsi
	jmp	__printf_chk@PLT
	.cfi_endproc
.LFE4773:
	.size	_Z15test_fmsub_s_81v, .-_Z15test_fmsub_s_81v
	.p2align 4
	.globl	_Z15test_fmsub_s_82v
	.type	_Z15test_fmsub_s_82v, @function
_Z15test_fmsub_s_82v:
.LFB4217:
	.cfi_startproc
	endbr64
	pushq	%rbp
	.cfi_def_cfa_offset 16
	.cfi_offset 6, -16
	xorl	%edi, %edi
	movq	%rsp, %rbp
	.cfi_def_cfa_register 6
	call	_ZN5riscv10fenv_setrmEi
	pxor	%xmm0, %xmm0
	movl	$1, %edi
	popq	%rbp
	.cfi_def_cfa 7, 8
	leaq	.LC13(%rip), %rsi
	movl	$1, %eax
	jmp	__printf_chk@PLT
	.cfi_endproc
.LFE4217:
	.size	_Z15test_fmsub_s_82v, .-_Z15test_fmsub_s_82v
	.p2align 4
	.globl	_Z15test_fmsub_s_83v
	.type	_Z15test_fmsub_s_83v, @function
_Z15test_fmsub_s_83v:
.LFB4369:
	.cfi_startproc
	endbr64
	jmp	_Z15test_fmadd_s_25v
	.cfi_endproc
.LFE4369:
	.size	_Z15test_fmsub_s_83v, .-_Z15test_fmsub_s_83v
	.p2align 4
	.globl	_Z15test_fmsub_s_84v
	.type	_Z15test_fmsub_s_84v, @function
_Z15test_fmsub_s_84v:
.LFB3603:
	.cfi_startproc
	endbr64
	jmp	_Z14test_fmadd_s_6v
	.cfi_endproc
.LFE3603:
	.size	_Z15test_fmsub_s_84v, .-_Z15test_fmsub_s_84v
	.p2align 4
	.globl	_Z15test_fmsub_s_85v
	.type	_Z15test_fmsub_s_85v, @function
_Z15test_fmsub_s_85v:
.LFB4685:
	.cfi_startproc
	endbr64
	pushq	%rbp
	.cfi_def_cfa_offset 16
	.cfi_offset 6, -16
	xorl	%edi, %edi
	movq	%rsp, %rbp
	.cfi_def_cfa_register 6
	call	_ZN5riscv10fenv_setrmEi
	movl	$1, %edi
	movl	$1, %eax
	popq	%rbp
	.cfi_def_cfa 7, 8
	movsd	.LC37(%rip), %xmm0
	leaq	.LC13(%rip), %rsi
	jmp	__printf_chk@PLT
	.cfi_endproc
.LFE4685:
	.size	_Z15test_fmsub_s_85v, .-_Z15test_fmsub_s_85v
	.p2align 4
	.globl	_Z15test_fmsub_s_86v
	.type	_Z15test_fmsub_s_86v, @function
_Z15test_fmsub_s_86v:
.LFB4683:
	.cfi_startproc
	endbr64
	pushq	%rbp
	.cfi_def_cfa_offset 16
	.cfi_offset 6, -16
	xorl	%edi, %edi
	movq	%rsp, %rbp
	.cfi_def_cfa_register 6
	call	_ZN5riscv10fenv_setrmEi
	movl	$1, %edi
	movl	$1, %eax
	popq	%rbp
	.cfi_def_cfa 7, 8
	movsd	.LC36(%rip), %xmm0
	leaq	.LC13(%rip), %rsi
	jmp	__printf_chk@PLT
	.cfi_endproc
.LFE4683:
	.size	_Z15test_fmsub_s_86v, .-_Z15test_fmsub_s_86v
	.p2align 4
	.globl	_Z15test_fmsub_s_87v
	.type	_Z15test_fmsub_s_87v, @function
_Z15test_fmsub_s_87v:
.LFB891:
	.loc 2 3130 1 is_stmt 1 view -0
	.cfi_startproc
	endbr64
	.loc 2 3131 2 view .LVU1536
.LVL343:
	.loc 2 3132 2 view .LVU1537
	.loc 2 3133 2 view .LVU1538
	.loc 2 3134 2 view .LVU1539
.LBB17091:
.LBI17091:
	.loc 2 34 16 view .LVU1540
.LBB17092:
	.loc 2 36 2 view .LVU1541
	.loc 2 37 2 view .LVU1542
.LBE17092:
.LBE17091:
	.loc 2 3130 1 is_stmt 0 view .LVU1543
	pushq	%rbp
	.cfi_def_cfa_offset 16
	.cfi_offset 6, -16
.LBB17095:
.LBB17093:
	.loc 2 37 12 view .LVU1544
	xorl	%edi, %edi
.LBE17093:
.LBE17095:
	.loc 2 3130 1 view .LVU1545
	movq	%rsp, %rbp
	.cfi_def_cfa_register 6
.LBB17096:
.LBB17094:
	.loc 2 37 12 view .LVU1546
	call	_ZN5riscv10fenv_setrmEi
.LVL344:
	.loc 2 37 18 is_stmt 1 view .LVU1547
	.loc 2 38 2 view .LVU1548
	.loc 2 38 2 is_stmt 0 view .LVU1549
.LBE17094:
.LBE17096:
	.loc 2 3135 2 is_stmt 1 view .LVU1550
.LBB17097:
.LBI17097:
	.loc 4 105 1 view .LVU1551
.LBB17098:
	.loc 4 107 3 view .LVU1552
	.loc 4 107 23 is_stmt 0 view .LVU1553
	movl	$1, %edi
	movl	$1, %eax
.LBE17098:
.LBE17097:
	.loc 2 3136 1 view .LVU1554
	popq	%rbp
	.cfi_def_cfa 7, 8
.LBB17100:
.LBB17099:
	.loc 4 107 23 view .LVU1555
	movsd	.LC53(%rip), %xmm0
	leaq	.LC13(%rip), %rsi
	jmp	__printf_chk@PLT
.LVL345:
.LBE17099:
.LBE17100:
	.cfi_endproc
.LFE891:
	.size	_Z15test_fmsub_s_87v, .-_Z15test_fmsub_s_87v
	.p2align 4
	.globl	_Z15test_fmsub_s_88v
	.type	_Z15test_fmsub_s_88v, @function
_Z15test_fmsub_s_88v:
.LFB892:
	.loc 2 3139 1 is_stmt 1 view -0
	.cfi_startproc
	endbr64
	.loc 2 3140 2 view .LVU1557
.LVL346:
	.loc 2 3141 2 view .LVU1558
	.loc 2 3142 2 view .LVU1559
	.loc 2 3143 2 view .LVU1560
.LBB17101:
.LBI17101:
	.loc 2 34 16 view .LVU1561
.LBB17102:
	.loc 2 36 2 view .LVU1562
	.loc 2 37 2 view .LVU1563
.LBE17102:
.LBE17101:
	.loc 2 3139 1 is_stmt 0 view .LVU1564
	pushq	%rbp
	.cfi_def_cfa_offset 16
	.cfi_offset 6, -16
.LBB17105:
.LBB17103:
	.loc 2 37 12 view .LVU1565
	xorl	%edi, %edi
.LBE17103:
.LBE17105:
	.loc 2 3139 1 view .LVU1566
	movq	%rsp, %rbp
	.cfi_def_cfa_register 6
.LBB17106:
.LBB17104:
	.loc 2 37 12 view .LVU1567
	call	_ZN5riscv10fenv_setrmEi
.LVL347:
	.loc 2 37 18 is_stmt 1 view .LVU1568
	.loc 2 38 2 view .LVU1569
	.loc 2 38 2 is_stmt 0 view .LVU1570
.LBE17104:
.LBE17106:
	.loc 2 3144 2 is_stmt 1 view .LVU1571
.LBB17107:
.LBI17107:
	.loc 4 105 1 view .LVU1572
.LBB17108:
	.loc 4 107 3 view .LVU1573
	.loc 4 107 23 is_stmt 0 view .LVU1574
	movl	$1, %edi
	movl	$1, %eax
.LBE17108:
.LBE17107:
	.loc 2 3145 1 view .LVU1575
	popq	%rbp
	.cfi_def_cfa 7, 8
.LBB17110:
.LBB17109:
	.loc 4 107 23 view .LVU1576
	movsd	.LC54(%rip), %xmm0
	leaq	.LC13(%rip), %rsi
	jmp	__printf_chk@PLT
.LVL348:
.LBE17109:
.LBE17110:
	.cfi_endproc
.LFE892:
	.size	_Z15test_fmsub_s_88v, .-_Z15test_fmsub_s_88v
	.p2align 4
	.globl	_Z15test_fmsub_s_89v
	.type	_Z15test_fmsub_s_89v, @function
_Z15test_fmsub_s_89v:
.LFB4371:
	.cfi_startproc
	endbr64
	pushq	%rbp
	.cfi_def_cfa_offset 16
	.cfi_offset 6, -16
	xorl	%edi, %edi
	movq	%rsp, %rbp
	.cfi_def_cfa_register 6
	call	_ZN5riscv10fenv_setrmEi
	movl	$1, %edi
	movl	$1, %eax
	popq	%rbp
	.cfi_def_cfa 7, 8
	movsd	.LC30(%rip), %xmm0
	leaq	.LC13(%rip), %rsi
	jmp	__printf_chk@PLT
	.cfi_endproc
.LFE4371:
	.size	_Z15test_fmsub_s_89v, .-_Z15test_fmsub_s_89v
	.p2align 4
	.globl	_Z15test_fmsub_s_90v
	.type	_Z15test_fmsub_s_90v, @function
_Z15test_fmsub_s_90v:
.LFB3605:
	.cfi_startproc
	endbr64
	jmp	_Z14test_fmadd_s_6v
	.cfi_endproc
.LFE3605:
	.size	_Z15test_fmsub_s_90v, .-_Z15test_fmsub_s_90v
	.p2align 4
	.globl	_Z15test_fmsub_s_91v
	.type	_Z15test_fmsub_s_91v, @function
_Z15test_fmsub_s_91v:
.LFB4695:
	.cfi_startproc
	endbr64
	pushq	%rbp
	.cfi_def_cfa_offset 16
	.cfi_offset 6, -16
	xorl	%edi, %edi
	movq	%rsp, %rbp
	.cfi_def_cfa_register 6
	call	_ZN5riscv10fenv_setrmEi
	movl	$1, %edi
	movl	$1, %eax
	popq	%rbp
	.cfi_def_cfa 7, 8
	movsd	.LC41(%rip), %xmm0
	leaq	.LC13(%rip), %rsi
	jmp	__printf_chk@PLT
	.cfi_endproc
.LFE4695:
	.size	_Z15test_fmsub_s_91v, .-_Z15test_fmsub_s_91v
	.p2align 4
	.globl	_Z15test_fmsub_s_92v
	.type	_Z15test_fmsub_s_92v, @function
_Z15test_fmsub_s_92v:
.LFB4689:
	.cfi_startproc
	endbr64
	pushq	%rbp
	.cfi_def_cfa_offset 16
	.cfi_offset 6, -16
	xorl	%edi, %edi
	movq	%rsp, %rbp
	.cfi_def_cfa_register 6
	call	_ZN5riscv10fenv_setrmEi
	movl	$1, %edi
	movl	$1, %eax
	popq	%rbp
	.cfi_def_cfa 7, 8
	movsd	.LC40(%rip), %xmm0
	leaq	.LC13(%rip), %rsi
	jmp	__printf_chk@PLT
	.cfi_endproc
.LFE4689:
	.size	_Z15test_fmsub_s_92v, .-_Z15test_fmsub_s_92v
	.p2align 4
	.globl	_Z15test_fmsub_s_93v
	.type	_Z15test_fmsub_s_93v, @function
_Z15test_fmsub_s_93v:
.LFB897:
	.loc 2 3184 1 is_stmt 1 view -0
	.cfi_startproc
	endbr64
	.loc 2 3185 2 view .LVU1578
.LVL349:
	.loc 2 3186 2 view .LVU1579
	.loc 2 3187 2 view .LVU1580
	.loc 2 3188 2 view .LVU1581
.LBB17115:
.LBI17115:
	.loc 2 34 16 view .LVU1582
.LBB17116:
	.loc 2 36 2 view .LVU1583
	.loc 2 37 2 view .LVU1584
.LBE17116:
.LBE17115:
	.loc 2 3184 1 is_stmt 0 view .LVU1585
	pushq	%rbp
	.cfi_def_cfa_offset 16
	.cfi_offset 6, -16
.LBB17119:
.LBB17117:
	.loc 2 37 12 view .LVU1586
	xorl	%edi, %edi
.LBE17117:
.LBE17119:
	.loc 2 3184 1 view .LVU1587
	movq	%rsp, %rbp
	.cfi_def_cfa_register 6
.LBB17120:
.LBB17118:
	.loc 2 37 12 view .LVU1588
	call	_ZN5riscv10fenv_setrmEi
.LVL350:
	.loc 2 37 18 is_stmt 1 view .LVU1589
	.loc 2 38 2 view .LVU1590
	.loc 2 38 2 is_stmt 0 view .LVU1591
.LBE17118:
.LBE17120:
	.loc 2 3189 2 is_stmt 1 view .LVU1592
.LBB17121:
.LBI17121:
	.loc 4 105 1 view .LVU1593
.LBB17122:
	.loc 4 107 3 view .LVU1594
	.loc 4 107 23 is_stmt 0 view .LVU1595
	movl	$1, %edi
	movl	$1, %eax
.LBE17122:
.LBE17121:
	.loc 2 3190 1 view .LVU1596
	popq	%rbp
	.cfi_def_cfa 7, 8
.LBB17124:
.LBB17123:
	.loc 4 107 23 view .LVU1597
	movsd	.LC55(%rip), %xmm0
	leaq	.LC13(%rip), %rsi
	jmp	__printf_chk@PLT
.LVL351:
.LBE17123:
.LBE17124:
	.cfi_endproc
.LFE897:
	.size	_Z15test_fmsub_s_93v, .-_Z15test_fmsub_s_93v
	.p2align 4
	.globl	_Z15test_fmsub_s_94v
	.type	_Z15test_fmsub_s_94v, @function
_Z15test_fmsub_s_94v:
.LFB898:
	.loc 2 3193 1 is_stmt 1 view -0
	.cfi_startproc
	endbr64
	.loc 2 3194 2 view .LVU1599
.LVL352:
	.loc 2 3195 2 view .LVU1600
	.loc 2 3196 2 view .LVU1601
	.loc 2 3197 2 view .LVU1602
.LBB17129:
.LBI17129:
	.loc 2 34 16 view .LVU1603
.LBB17130:
	.loc 2 36 2 view .LVU1604
	.loc 2 37 2 view .LVU1605
.LBE17130:
.LBE17129:
	.loc 2 3193 1 is_stmt 0 view .LVU1606
	pushq	%rbp
	.cfi_def_cfa_offset 16
	.cfi_offset 6, -16
.LBB17133:
.LBB17131:
	.loc 2 37 12 view .LVU1607
	xorl	%edi, %edi
.LBE17131:
.LBE17133:
	.loc 2 3193 1 view .LVU1608
	movq	%rsp, %rbp
	.cfi_def_cfa_register 6
.LBB17134:
.LBB17132:
	.loc 2 37 12 view .LVU1609
	call	_ZN5riscv10fenv_setrmEi
.LVL353:
	.loc 2 37 18 is_stmt 1 view .LVU1610
	.loc 2 38 2 view .LVU1611
	.loc 2 38 2 is_stmt 0 view .LVU1612
.LBE17132:
.LBE17134:
	.loc 2 3198 2 is_stmt 1 view .LVU1613
.LBB17135:
.LBI17135:
	.loc 4 105 1 view .LVU1614
.LBB17136:
	.loc 4 107 3 view .LVU1615
	.loc 4 107 23 is_stmt 0 view .LVU1616
	movl	$1, %edi
	movl	$1, %eax
.LBE17136:
.LBE17135:
	.loc 2 3199 1 view .LVU1617
	popq	%rbp
	.cfi_def_cfa 7, 8
.LBB17138:
.LBB17137:
	.loc 4 107 23 view .LVU1618
	movsd	.LC56(%rip), %xmm0
	leaq	.LC13(%rip), %rsi
	jmp	__printf_chk@PLT
.LVL354:
.LBE17137:
.LBE17138:
	.cfi_endproc
.LFE898:
	.size	_Z15test_fmsub_s_94v, .-_Z15test_fmsub_s_94v
	.p2align 4
	.globl	_Z15test_fmsub_s_95v
	.type	_Z15test_fmsub_s_95v, @function
_Z15test_fmsub_s_95v:
.LFB4373:
	.cfi_startproc
	endbr64
	pushq	%rbp
	.cfi_def_cfa_offset 16
	.cfi_offset 6, -16
	xorl	%edi, %edi
	movq	%rsp, %rbp
	.cfi_def_cfa_register 6
	call	_ZN5riscv10fenv_setrmEi
	movl	$1, %edi
	movl	$1, %eax
	popq	%rbp
	.cfi_def_cfa 7, 8
	movsd	.LC30(%rip), %xmm0
	leaq	.LC13(%rip), %rsi
	jmp	__printf_chk@PLT
	.cfi_endproc
.LFE4373:
	.size	_Z15test_fmsub_s_95v, .-_Z15test_fmsub_s_95v
	.p2align 4
	.globl	_Z15test_fmsub_s_96v
	.type	_Z15test_fmsub_s_96v, @function
_Z15test_fmsub_s_96v:
.LFB3607:
	.cfi_startproc
	endbr64
	jmp	_Z14test_fmadd_s_6v
	.cfi_endproc
.LFE3607:
	.size	_Z15test_fmsub_s_96v, .-_Z15test_fmsub_s_96v
	.p2align 4
	.globl	_Z15test_fmsub_s_97v
	.type	_Z15test_fmsub_s_97v, @function
_Z15test_fmsub_s_97v:
.LFB3207:
	.cfi_startproc
	endbr64
	jmp	_Z14test_fmadd_s_5v
	.cfi_endproc
.LFE3207:
	.size	_Z15test_fmsub_s_97v, .-_Z15test_fmsub_s_97v
	.p2align 4
	.globl	_Z15test_fmsub_s_98v
	.type	_Z15test_fmsub_s_98v, @function
_Z15test_fmsub_s_98v:
.LFB3209:
	.cfi_startproc
	endbr64
	jmp	_Z14test_fmadd_s_5v
	.cfi_endproc
.LFE3209:
	.size	_Z15test_fmsub_s_98v, .-_Z15test_fmsub_s_98v
	.p2align 4
	.globl	_Z15test_fmsub_s_99v
	.type	_Z15test_fmsub_s_99v, @function
_Z15test_fmsub_s_99v:
.LFB3211:
	.cfi_startproc
	endbr64
	jmp	_Z14test_fmadd_s_5v
	.cfi_endproc
.LFE3211:
	.size	_Z15test_fmsub_s_99v, .-_Z15test_fmsub_s_99v
	.p2align 4
	.globl	_Z16test_fmsub_s_100v
	.type	_Z16test_fmsub_s_100v, @function
_Z16test_fmsub_s_100v:
.LFB3213:
	.cfi_startproc
	endbr64
	jmp	_Z14test_fmadd_s_5v
	.cfi_endproc
.LFE3213:
	.size	_Z16test_fmsub_s_100v, .-_Z16test_fmsub_s_100v
	.p2align 4
	.globl	_Z16test_fmsub_s_101v
	.type	_Z16test_fmsub_s_101v, @function
_Z16test_fmsub_s_101v:
.LFB3609:
	.cfi_startproc
	endbr64
	jmp	_Z14test_fmadd_s_6v
	.cfi_endproc
.LFE3609:
	.size	_Z16test_fmsub_s_101v, .-_Z16test_fmsub_s_101v
	.p2align 4
	.globl	_Z16test_fmsub_s_102v
	.type	_Z16test_fmsub_s_102v, @function
_Z16test_fmsub_s_102v:
.LFB3611:
	.cfi_startproc
	endbr64
	jmp	_Z14test_fmadd_s_6v
	.cfi_endproc
.LFE3611:
	.size	_Z16test_fmsub_s_102v, .-_Z16test_fmsub_s_102v
	.p2align 4
	.globl	_Z16test_fmsub_s_103v
	.type	_Z16test_fmsub_s_103v, @function
_Z16test_fmsub_s_103v:
.LFB3613:
	.cfi_startproc
	endbr64
	jmp	_Z14test_fmadd_s_6v
	.cfi_endproc
.LFE3613:
	.size	_Z16test_fmsub_s_103v, .-_Z16test_fmsub_s_103v
	.p2align 4
	.globl	_Z16test_fmsub_s_104v
	.type	_Z16test_fmsub_s_104v, @function
_Z16test_fmsub_s_104v:
.LFB3615:
	.cfi_startproc
	endbr64
	jmp	_Z14test_fmadd_s_6v
	.cfi_endproc
.LFE3615:
	.size	_Z16test_fmsub_s_104v, .-_Z16test_fmsub_s_104v
	.p2align 4
	.globl	_Z16test_fmsub_s_105v
	.type	_Z16test_fmsub_s_105v, @function
_Z16test_fmsub_s_105v:
.LFB3617:
	.cfi_startproc
	endbr64
	jmp	_Z14test_fmadd_s_6v
	.cfi_endproc
.LFE3617:
	.size	_Z16test_fmsub_s_105v, .-_Z16test_fmsub_s_105v
	.p2align 4
	.globl	_Z16test_fmsub_s_106v
	.type	_Z16test_fmsub_s_106v, @function
_Z16test_fmsub_s_106v:
.LFB3619:
	.cfi_startproc
	endbr64
	jmp	_Z14test_fmadd_s_6v
	.cfi_endproc
.LFE3619:
	.size	_Z16test_fmsub_s_106v, .-_Z16test_fmsub_s_106v
	.p2align 4
	.globl	_Z16test_fmsub_s_107v
	.type	_Z16test_fmsub_s_107v, @function
_Z16test_fmsub_s_107v:
.LFB3621:
	.cfi_startproc
	endbr64
	jmp	_Z14test_fmadd_s_6v
	.cfi_endproc
.LFE3621:
	.size	_Z16test_fmsub_s_107v, .-_Z16test_fmsub_s_107v
	.p2align 4
	.globl	_Z16test_fmsub_s_108v
	.type	_Z16test_fmsub_s_108v, @function
_Z16test_fmsub_s_108v:
.LFB3623:
	.cfi_startproc
	endbr64
	jmp	_Z14test_fmadd_s_6v
	.cfi_endproc
.LFE3623:
	.size	_Z16test_fmsub_s_108v, .-_Z16test_fmsub_s_108v
	.p2align 4
	.globl	_Z16test_fmsub_s_109v
	.type	_Z16test_fmsub_s_109v, @function
_Z16test_fmsub_s_109v:
.LFB4271:
	.cfi_startproc
	endbr64
	pushq	%rbp
	.cfi_def_cfa_offset 16
	.cfi_offset 6, -16
	xorl	%edi, %edi
	movq	%rsp, %rbp
	.cfi_def_cfa_register 6
	call	_ZN5riscv10fenv_setrmEi
	movl	$1, %edi
	movl	$1, %eax
	popq	%rbp
	.cfi_def_cfa 7, 8
	movsd	.LC27(%rip), %xmm0
	leaq	.LC13(%rip), %rsi
	jmp	__printf_chk@PLT
	.cfi_endproc
.LFE4271:
	.size	_Z16test_fmsub_s_109v, .-_Z16test_fmsub_s_109v
	.p2align 4
	.globl	_Z16test_fmsub_s_110v
	.type	_Z16test_fmsub_s_110v, @function
_Z16test_fmsub_s_110v:
.LFB4253:
	.cfi_startproc
	endbr64
	pushq	%rbp
	.cfi_def_cfa_offset 16
	.cfi_offset 6, -16
	xorl	%edi, %edi
	movq	%rsp, %rbp
	.cfi_def_cfa_register 6
	call	_ZN5riscv10fenv_setrmEi
	movl	$1, %edi
	movl	$1, %eax
	popq	%rbp
	.cfi_def_cfa 7, 8
	movsd	.LC26(%rip), %xmm0
	leaq	.LC13(%rip), %rsi
	jmp	__printf_chk@PLT
	.cfi_endproc
.LFE4253:
	.size	_Z16test_fmsub_s_110v, .-_Z16test_fmsub_s_110v
	.p2align 4
	.globl	_Z16test_fmsub_s_111v
	.type	_Z16test_fmsub_s_111v, @function
_Z16test_fmsub_s_111v:
.LFB4767:
	.cfi_startproc
	endbr64
	pushq	%rbp
	.cfi_def_cfa_offset 16
	.cfi_offset 6, -16
	xorl	%edi, %edi
	movq	%rsp, %rbp
	.cfi_def_cfa_register 6
	call	_ZN5riscv10fenv_setrmEi
	movl	$1, %edi
	movl	$1, %eax
	popq	%rbp
	.cfi_def_cfa 7, 8
	movsd	.LC51(%rip), %xmm0
	leaq	.LC13(%rip), %rsi
	jmp	__printf_chk@PLT
	.cfi_endproc
.LFE4767:
	.size	_Z16test_fmsub_s_111v, .-_Z16test_fmsub_s_111v
	.p2align 4
	.globl	_Z16test_fmsub_s_112v
	.type	_Z16test_fmsub_s_112v, @function
_Z16test_fmsub_s_112v:
.LFB4573:
	.cfi_startproc
	endbr64
	pushq	%rbp
	.cfi_def_cfa_offset 16
	.cfi_offset 6, -16
	xorl	%edi, %edi
	movq	%rsp, %rbp
	.cfi_def_cfa_register 6
	call	_ZN5riscv10fenv_setrmEi
	movl	$1, %edi
	movl	$1, %eax
	popq	%rbp
	.cfi_def_cfa 7, 8
	movsd	.LC31(%rip), %xmm0
	leaq	.LC13(%rip), %rsi
	jmp	__printf_chk@PLT
	.cfi_endproc
.LFE4573:
	.size	_Z16test_fmsub_s_112v, .-_Z16test_fmsub_s_112v
	.p2align 4
	.globl	_Z16test_fmsub_s_113v
	.type	_Z16test_fmsub_s_113v, @function
_Z16test_fmsub_s_113v:
.LFB4375:
	.cfi_startproc
	endbr64
	pushq	%rbp
	.cfi_def_cfa_offset 16
	.cfi_offset 6, -16
	xorl	%edi, %edi
	movq	%rsp, %rbp
	.cfi_def_cfa_register 6
	call	_ZN5riscv10fenv_setrmEi
	movl	$1, %edi
	movl	$1, %eax
	popq	%rbp
	.cfi_def_cfa 7, 8
	movsd	.LC30(%rip), %xmm0
	leaq	.LC13(%rip), %rsi
	jmp	__printf_chk@PLT
	.cfi_endproc
.LFE4375:
	.size	_Z16test_fmsub_s_113v, .-_Z16test_fmsub_s_113v
	.p2align 4
	.globl	_Z16test_fmsub_s_114v
	.type	_Z16test_fmsub_s_114v, @function
_Z16test_fmsub_s_114v:
.LFB3625:
	.cfi_startproc
	endbr64
	jmp	_Z14test_fmadd_s_6v
	.cfi_endproc
.LFE3625:
	.size	_Z16test_fmsub_s_114v, .-_Z16test_fmsub_s_114v
	.p2align 4
	.globl	_Z16test_fmsub_s_115v
	.type	_Z16test_fmsub_s_115v, @function
_Z16test_fmsub_s_115v:
.LFB4667:
	.cfi_startproc
	endbr64
	pushq	%rbp
	.cfi_def_cfa_offset 16
	.cfi_offset 6, -16
	xorl	%edi, %edi
	movq	%rsp, %rbp
	.cfi_def_cfa_register 6
	call	_ZN5riscv10fenv_setrmEi
	movl	$1, %edi
	movl	$1, %eax
	popq	%rbp
	.cfi_def_cfa 7, 8
	movsd	.LC34(%rip), %xmm0
	leaq	.LC13(%rip), %rsi
	jmp	__printf_chk@PLT
	.cfi_endproc
.LFE4667:
	.size	_Z16test_fmsub_s_115v, .-_Z16test_fmsub_s_115v
	.p2align 4
	.globl	_Z16test_fmsub_s_116v
	.type	_Z16test_fmsub_s_116v, @function
_Z16test_fmsub_s_116v:
.LFB4641:
	.cfi_startproc
	endbr64
	pushq	%rbp
	.cfi_def_cfa_offset 16
	.cfi_offset 6, -16
	xorl	%edi, %edi
	movq	%rsp, %rbp
	.cfi_def_cfa_register 6
	call	_ZN5riscv10fenv_setrmEi
	movl	$1, %edi
	movl	$1, %eax
	popq	%rbp
	.cfi_def_cfa 7, 8
	movsd	.LC11(%rip), %xmm0
	leaq	.LC13(%rip), %rsi
	jmp	__printf_chk@PLT
	.cfi_endproc
.LFE4641:
	.size	_Z16test_fmsub_s_116v, .-_Z16test_fmsub_s_116v
	.p2align 4
	.globl	_Z16test_fmsub_s_117v
	.type	_Z16test_fmsub_s_117v, @function
_Z16test_fmsub_s_117v:
.LFB4619:
	.cfi_startproc
	endbr64
	pushq	%rbp
	.cfi_def_cfa_offset 16
	.cfi_offset 6, -16
	xorl	%edi, %edi
	movq	%rsp, %rbp
	.cfi_def_cfa_register 6
	call	_ZN5riscv10fenv_setrmEi
	movl	$1, %edi
	movl	$1, %eax
	popq	%rbp
	.cfi_def_cfa 7, 8
	movsd	.LC33(%rip), %xmm0
	leaq	.LC13(%rip), %rsi
	jmp	__printf_chk@PLT
	.cfi_endproc
.LFE4619:
	.size	_Z16test_fmsub_s_117v, .-_Z16test_fmsub_s_117v
	.p2align 4
	.globl	_Z16test_fmsub_s_118v
	.type	_Z16test_fmsub_s_118v, @function
_Z16test_fmsub_s_118v:
.LFB4725:
	.cfi_startproc
	endbr64
	pushq	%rbp
	.cfi_def_cfa_offset 16
	.cfi_offset 6, -16
	xorl	%edi, %edi
	movq	%rsp, %rbp
	.cfi_def_cfa_register 6
	call	_ZN5riscv10fenv_setrmEi
	movl	$1, %edi
	movl	$1, %eax
	popq	%rbp
	.cfi_def_cfa 7, 8
	movsd	.LC46(%rip), %xmm0
	leaq	.LC13(%rip), %rsi
	jmp	__printf_chk@PLT
	.cfi_endproc
.LFE4725:
	.size	_Z16test_fmsub_s_118v, .-_Z16test_fmsub_s_118v
	.p2align 4
	.globl	_Z16test_fmsub_s_119v
	.type	_Z16test_fmsub_s_119v, @function
_Z16test_fmsub_s_119v:
.LFB4377:
	.cfi_startproc
	endbr64
	pushq	%rbp
	.cfi_def_cfa_offset 16
	.cfi_offset 6, -16
	xorl	%edi, %edi
	movq	%rsp, %rbp
	.cfi_def_cfa_register 6
	call	_ZN5riscv10fenv_setrmEi
	movl	$1, %edi
	movl	$1, %eax
	popq	%rbp
	.cfi_def_cfa 7, 8
	movsd	.LC30(%rip), %xmm0
	leaq	.LC13(%rip), %rsi
	jmp	__printf_chk@PLT
	.cfi_endproc
.LFE4377:
	.size	_Z16test_fmsub_s_119v, .-_Z16test_fmsub_s_119v
	.p2align 4
	.globl	_Z16test_fmsub_s_120v
	.type	_Z16test_fmsub_s_120v, @function
_Z16test_fmsub_s_120v:
.LFB3627:
	.cfi_startproc
	endbr64
	jmp	_Z14test_fmadd_s_6v
	.cfi_endproc
.LFE3627:
	.size	_Z16test_fmsub_s_120v, .-_Z16test_fmsub_s_120v
	.p2align 4
	.globl	_Z16test_fmsub_s_121v
	.type	_Z16test_fmsub_s_121v, @function
_Z16test_fmsub_s_121v:
.LFB4697:
	.cfi_startproc
	endbr64
	pushq	%rbp
	.cfi_def_cfa_offset 16
	.cfi_offset 6, -16
	xorl	%edi, %edi
	movq	%rsp, %rbp
	.cfi_def_cfa_register 6
	call	_ZN5riscv10fenv_setrmEi
	movl	$1, %edi
	movl	$1, %eax
	popq	%rbp
	.cfi_def_cfa 7, 8
	movsd	.LC41(%rip), %xmm0
	leaq	.LC13(%rip), %rsi
	jmp	__printf_chk@PLT
	.cfi_endproc
.LFE4697:
	.size	_Z16test_fmsub_s_121v, .-_Z16test_fmsub_s_121v
	.p2align 4
	.globl	_Z16test_fmsub_s_122v
	.type	_Z16test_fmsub_s_122v, @function
_Z16test_fmsub_s_122v:
.LFB4691:
	.cfi_startproc
	endbr64
	pushq	%rbp
	.cfi_def_cfa_offset 16
	.cfi_offset 6, -16
	xorl	%edi, %edi
	movq	%rsp, %rbp
	.cfi_def_cfa_register 6
	call	_ZN5riscv10fenv_setrmEi
	movl	$1, %edi
	movl	$1, %eax
	popq	%rbp
	.cfi_def_cfa 7, 8
	movsd	.LC40(%rip), %xmm0
	leaq	.LC13(%rip), %rsi
	jmp	__printf_chk@PLT
	.cfi_endproc
.LFE4691:
	.size	_Z16test_fmsub_s_122v, .-_Z16test_fmsub_s_122v
	.p2align 4
	.globl	_Z16test_fmsub_s_123v
	.type	_Z16test_fmsub_s_123v, @function
_Z16test_fmsub_s_123v:
.LFB4789:
	.cfi_startproc
	endbr64
	pushq	%rbp
	.cfi_def_cfa_offset 16
	.cfi_offset 6, -16
	xorl	%edi, %edi
	movq	%rsp, %rbp
	.cfi_def_cfa_register 6
	call	_ZN5riscv10fenv_setrmEi
	movl	$1, %edi
	movl	$1, %eax
	popq	%rbp
	.cfi_def_cfa 7, 8
	movsd	.LC55(%rip), %xmm0
	leaq	.LC13(%rip), %rsi
	jmp	__printf_chk@PLT
	.cfi_endproc
.LFE4789:
	.size	_Z16test_fmsub_s_123v, .-_Z16test_fmsub_s_123v
	.p2align 4
	.globl	_Z16test_fmsub_s_124v
	.type	_Z16test_fmsub_s_124v, @function
_Z16test_fmsub_s_124v:
.LFB4793:
	.cfi_startproc
	endbr64
	pushq	%rbp
	.cfi_def_cfa_offset 16
	.cfi_offset 6, -16
	xorl	%edi, %edi
	movq	%rsp, %rbp
	.cfi_def_cfa_register 6
	call	_ZN5riscv10fenv_setrmEi
	movl	$1, %edi
	movl	$1, %eax
	popq	%rbp
	.cfi_def_cfa 7, 8
	movsd	.LC56(%rip), %xmm0
	leaq	.LC13(%rip), %rsi
	jmp	__printf_chk@PLT
	.cfi_endproc
.LFE4793:
	.size	_Z16test_fmsub_s_124v, .-_Z16test_fmsub_s_124v
	.p2align 4
	.globl	_Z16test_fmsub_s_125v
	.type	_Z16test_fmsub_s_125v, @function
_Z16test_fmsub_s_125v:
.LFB4379:
	.cfi_startproc
	endbr64
	jmp	_Z15test_fmadd_s_25v
	.cfi_endproc
.LFE4379:
	.size	_Z16test_fmsub_s_125v, .-_Z16test_fmsub_s_125v
	.p2align 4
	.globl	_Z16test_fmsub_s_126v
	.type	_Z16test_fmsub_s_126v, @function
_Z16test_fmsub_s_126v:
.LFB3629:
	.cfi_startproc
	endbr64
	jmp	_Z14test_fmadd_s_6v
	.cfi_endproc
.LFE3629:
	.size	_Z16test_fmsub_s_126v, .-_Z16test_fmsub_s_126v
	.p2align 4
	.globl	_Z16test_fmsub_s_127v
	.type	_Z16test_fmsub_s_127v, @function
_Z16test_fmsub_s_127v:
.LFB4715:
	.cfi_startproc
	endbr64
	pushq	%rbp
	.cfi_def_cfa_offset 16
	.cfi_offset 6, -16
	xorl	%edi, %edi
	movq	%rsp, %rbp
	.cfi_def_cfa_register 6
	call	_ZN5riscv10fenv_setrmEi
	movl	$1, %edi
	movl	$1, %eax
	popq	%rbp
	.cfi_def_cfa 7, 8
	movsd	.LC45(%rip), %xmm0
	leaq	.LC13(%rip), %rsi
	jmp	__printf_chk@PLT
	.cfi_endproc
.LFE4715:
	.size	_Z16test_fmsub_s_127v, .-_Z16test_fmsub_s_127v
	.p2align 4
	.globl	_Z16test_fmsub_s_128v
	.type	_Z16test_fmsub_s_128v, @function
_Z16test_fmsub_s_128v:
.LFB4707:
	.cfi_startproc
	endbr64
	pushq	%rbp
	.cfi_def_cfa_offset 16
	.cfi_offset 6, -16
	xorl	%edi, %edi
	movq	%rsp, %rbp
	.cfi_def_cfa_register 6
	call	_ZN5riscv10fenv_setrmEi
	movl	$1, %edi
	movl	$1, %eax
	popq	%rbp
	.cfi_def_cfa 7, 8
	movsd	.LC44(%rip), %xmm0
	leaq	.LC13(%rip), %rsi
	jmp	__printf_chk@PLT
	.cfi_endproc
.LFE4707:
	.size	_Z16test_fmsub_s_128v, .-_Z16test_fmsub_s_128v
	.p2align 4
	.globl	_Z16test_fmsub_s_129v
	.type	_Z16test_fmsub_s_129v, @function
_Z16test_fmsub_s_129v:
.LFB4219:
	.cfi_startproc
	endbr64
	pushq	%rbp
	.cfi_def_cfa_offset 16
	.cfi_offset 6, -16
	xorl	%edi, %edi
	movq	%rsp, %rbp
	.cfi_def_cfa_register 6
	call	_ZN5riscv10fenv_setrmEi
	pxor	%xmm0, %xmm0
	movl	$1, %edi
	popq	%rbp
	.cfi_def_cfa 7, 8
	leaq	.LC13(%rip), %rsi
	movl	$1, %eax
	jmp	__printf_chk@PLT
	.cfi_endproc
.LFE4219:
	.size	_Z16test_fmsub_s_129v, .-_Z16test_fmsub_s_129v
	.p2align 4
	.globl	_Z16test_fmsub_s_130v
	.type	_Z16test_fmsub_s_130v, @function
_Z16test_fmsub_s_130v:
.LFB4203:
	.cfi_startproc
	endbr64
	pushq	%rbp
	.cfi_def_cfa_offset 16
	.cfi_offset 6, -16
	xorl	%edi, %edi
	movq	%rsp, %rbp
	.cfi_def_cfa_register 6
	call	_ZN5riscv10fenv_setrmEi
	movl	$1, %edi
	movl	$1, %eax
	popq	%rbp
	.cfi_def_cfa 7, 8
	movsd	.LC25(%rip), %xmm0
	leaq	.LC13(%rip), %rsi
	jmp	__printf_chk@PLT
	.cfi_endproc
.LFE4203:
	.size	_Z16test_fmsub_s_130v, .-_Z16test_fmsub_s_130v
	.p2align 4
	.globl	_Z16test_fmsub_s_131v
	.type	_Z16test_fmsub_s_131v, @function
_Z16test_fmsub_s_131v:
.LFB4381:
	.cfi_startproc
	endbr64
	pushq	%rbp
	.cfi_def_cfa_offset 16
	.cfi_offset 6, -16
	xorl	%edi, %edi
	movq	%rsp, %rbp
	.cfi_def_cfa_register 6
	call	_ZN5riscv10fenv_setrmEi
	movl	$1, %edi
	movl	$1, %eax
	popq	%rbp
	.cfi_def_cfa 7, 8
	movsd	.LC30(%rip), %xmm0
	leaq	.LC13(%rip), %rsi
	jmp	__printf_chk@PLT
	.cfi_endproc
.LFE4381:
	.size	_Z16test_fmsub_s_131v, .-_Z16test_fmsub_s_131v
	.p2align 4
	.globl	_Z16test_fmsub_s_132v
	.type	_Z16test_fmsub_s_132v, @function
_Z16test_fmsub_s_132v:
.LFB3631:
	.cfi_startproc
	endbr64
	jmp	_Z14test_fmadd_s_6v
	.cfi_endproc
.LFE3631:
	.size	_Z16test_fmsub_s_132v, .-_Z16test_fmsub_s_132v
	.p2align 4
	.globl	_Z16test_fmsub_s_133v
	.type	_Z16test_fmsub_s_133v, @function
_Z16test_fmsub_s_133v:
.LFB3215:
	.cfi_startproc
	endbr64
	jmp	_Z14test_fmadd_s_5v
	.cfi_endproc
.LFE3215:
	.size	_Z16test_fmsub_s_133v, .-_Z16test_fmsub_s_133v
	.p2align 4
	.globl	_Z16test_fmsub_s_134v
	.type	_Z16test_fmsub_s_134v, @function
_Z16test_fmsub_s_134v:
.LFB3217:
	.cfi_startproc
	endbr64
	jmp	_Z14test_fmadd_s_5v
	.cfi_endproc
.LFE3217:
	.size	_Z16test_fmsub_s_134v, .-_Z16test_fmsub_s_134v
	.p2align 4
	.globl	_Z16test_fmsub_s_135v
	.type	_Z16test_fmsub_s_135v, @function
_Z16test_fmsub_s_135v:
.LFB3219:
	.cfi_startproc
	endbr64
	jmp	_Z14test_fmadd_s_5v
	.cfi_endproc
.LFE3219:
	.size	_Z16test_fmsub_s_135v, .-_Z16test_fmsub_s_135v
	.p2align 4
	.globl	_Z16test_fmsub_s_136v
	.type	_Z16test_fmsub_s_136v, @function
_Z16test_fmsub_s_136v:
.LFB3221:
	.cfi_startproc
	endbr64
	jmp	_Z14test_fmadd_s_5v
	.cfi_endproc
.LFE3221:
	.size	_Z16test_fmsub_s_136v, .-_Z16test_fmsub_s_136v
	.p2align 4
	.globl	_Z16test_fmsub_s_137v
	.type	_Z16test_fmsub_s_137v, @function
_Z16test_fmsub_s_137v:
.LFB3633:
	.cfi_startproc
	endbr64
	jmp	_Z14test_fmadd_s_6v
	.cfi_endproc
.LFE3633:
	.size	_Z16test_fmsub_s_137v, .-_Z16test_fmsub_s_137v
	.p2align 4
	.globl	_Z16test_fmsub_s_138v
	.type	_Z16test_fmsub_s_138v, @function
_Z16test_fmsub_s_138v:
.LFB3635:
	.cfi_startproc
	endbr64
	jmp	_Z14test_fmadd_s_6v
	.cfi_endproc
.LFE3635:
	.size	_Z16test_fmsub_s_138v, .-_Z16test_fmsub_s_138v
	.p2align 4
	.globl	_Z16test_fmsub_s_139v
	.type	_Z16test_fmsub_s_139v, @function
_Z16test_fmsub_s_139v:
.LFB3637:
	.cfi_startproc
	endbr64
	jmp	_Z14test_fmadd_s_6v
	.cfi_endproc
.LFE3637:
	.size	_Z16test_fmsub_s_139v, .-_Z16test_fmsub_s_139v
	.p2align 4
	.globl	_Z16test_fmsub_s_140v
	.type	_Z16test_fmsub_s_140v, @function
_Z16test_fmsub_s_140v:
.LFB3639:
	.cfi_startproc
	endbr64
	jmp	_Z14test_fmadd_s_6v
	.cfi_endproc
.LFE3639:
	.size	_Z16test_fmsub_s_140v, .-_Z16test_fmsub_s_140v
	.p2align 4
	.globl	_Z16test_fmsub_s_141v
	.type	_Z16test_fmsub_s_141v, @function
_Z16test_fmsub_s_141v:
.LFB3641:
	.cfi_startproc
	endbr64
	jmp	_Z14test_fmadd_s_6v
	.cfi_endproc
.LFE3641:
	.size	_Z16test_fmsub_s_141v, .-_Z16test_fmsub_s_141v
	.p2align 4
	.globl	_Z16test_fmsub_s_142v
	.type	_Z16test_fmsub_s_142v, @function
_Z16test_fmsub_s_142v:
.LFB3643:
	.cfi_startproc
	endbr64
	jmp	_Z14test_fmadd_s_6v
	.cfi_endproc
.LFE3643:
	.size	_Z16test_fmsub_s_142v, .-_Z16test_fmsub_s_142v
	.p2align 4
	.globl	_Z16test_fmsub_s_143v
	.type	_Z16test_fmsub_s_143v, @function
_Z16test_fmsub_s_143v:
.LFB3645:
	.cfi_startproc
	endbr64
	jmp	_Z14test_fmadd_s_6v
	.cfi_endproc
.LFE3645:
	.size	_Z16test_fmsub_s_143v, .-_Z16test_fmsub_s_143v
	.p2align 4
	.globl	_Z16test_fmsub_s_144v
	.type	_Z16test_fmsub_s_144v, @function
_Z16test_fmsub_s_144v:
.LFB3647:
	.cfi_startproc
	endbr64
	jmp	_Z14test_fmadd_s_6v
	.cfi_endproc
.LFE3647:
	.size	_Z16test_fmsub_s_144v, .-_Z16test_fmsub_s_144v
	.p2align 4
	.globl	_Z16test_fmsub_s_145v
	.type	_Z16test_fmsub_s_145v, @function
_Z16test_fmsub_s_145v:
.LFB4383:
	.cfi_startproc
	endbr64
	pushq	%rbp
	.cfi_def_cfa_offset 16
	.cfi_offset 6, -16
	xorl	%edi, %edi
	movq	%rsp, %rbp
	.cfi_def_cfa_register 6
	call	_ZN5riscv10fenv_setrmEi
	movl	$1, %edi
	movl	$1, %eax
	popq	%rbp
	.cfi_def_cfa 7, 8
	movsd	.LC30(%rip), %xmm0
	leaq	.LC13(%rip), %rsi
	jmp	__printf_chk@PLT
	.cfi_endproc
.LFE4383:
	.size	_Z16test_fmsub_s_145v, .-_Z16test_fmsub_s_145v
	.p2align 4
	.globl	_Z16test_fmsub_s_146v
	.type	_Z16test_fmsub_s_146v, @function
_Z16test_fmsub_s_146v:
.LFB4385:
	.cfi_startproc
	endbr64
	pushq	%rbp
	.cfi_def_cfa_offset 16
	.cfi_offset 6, -16
	xorl	%edi, %edi
	movq	%rsp, %rbp
	.cfi_def_cfa_register 6
	call	_ZN5riscv10fenv_setrmEi
	movl	$1, %edi
	movl	$1, %eax
	popq	%rbp
	.cfi_def_cfa 7, 8
	movsd	.LC30(%rip), %xmm0
	leaq	.LC13(%rip), %rsi
	jmp	__printf_chk@PLT
	.cfi_endproc
.LFE4385:
	.size	_Z16test_fmsub_s_146v, .-_Z16test_fmsub_s_146v
	.p2align 4
	.globl	_Z16test_fmsub_s_147v
	.type	_Z16test_fmsub_s_147v, @function
_Z16test_fmsub_s_147v:
.LFB4387:
	.cfi_startproc
	endbr64
	jmp	_Z15test_fmadd_s_25v
	.cfi_endproc
.LFE4387:
	.size	_Z16test_fmsub_s_147v, .-_Z16test_fmsub_s_147v
	.p2align 4
	.globl	_Z16test_fmsub_s_148v
	.type	_Z16test_fmsub_s_148v, @function
_Z16test_fmsub_s_148v:
.LFB4389:
	.cfi_startproc
	endbr64
	jmp	_Z15test_fmadd_s_25v
	.cfi_endproc
.LFE4389:
	.size	_Z16test_fmsub_s_148v, .-_Z16test_fmsub_s_148v
	.p2align 4
	.globl	_Z16test_fmsub_s_149v
	.type	_Z16test_fmsub_s_149v, @function
_Z16test_fmsub_s_149v:
.LFB4391:
	.cfi_startproc
	endbr64
	jmp	_Z15test_fmadd_s_25v
	.cfi_endproc
.LFE4391:
	.size	_Z16test_fmsub_s_149v, .-_Z16test_fmsub_s_149v
	.p2align 4
	.globl	_Z16test_fmsub_s_150v
	.type	_Z16test_fmsub_s_150v, @function
_Z16test_fmsub_s_150v:
.LFB3649:
	.cfi_startproc
	endbr64
	jmp	_Z14test_fmadd_s_6v
	.cfi_endproc
.LFE3649:
	.size	_Z16test_fmsub_s_150v, .-_Z16test_fmsub_s_150v
	.p2align 4
	.globl	_Z16test_fmsub_s_151v
	.type	_Z16test_fmsub_s_151v, @function
_Z16test_fmsub_s_151v:
.LFB3223:
	.cfi_startproc
	endbr64
	jmp	_Z14test_fmadd_s_5v
	.cfi_endproc
.LFE3223:
	.size	_Z16test_fmsub_s_151v, .-_Z16test_fmsub_s_151v
	.p2align 4
	.globl	_Z16test_fmsub_s_152v
	.type	_Z16test_fmsub_s_152v, @function
_Z16test_fmsub_s_152v:
.LFB3225:
	.cfi_startproc
	endbr64
	jmp	_Z14test_fmadd_s_5v
	.cfi_endproc
.LFE3225:
	.size	_Z16test_fmsub_s_152v, .-_Z16test_fmsub_s_152v
	.p2align 4
	.globl	_Z16test_fmsub_s_153v
	.type	_Z16test_fmsub_s_153v, @function
_Z16test_fmsub_s_153v:
.LFB3227:
	.cfi_startproc
	endbr64
	jmp	_Z14test_fmadd_s_5v
	.cfi_endproc
.LFE3227:
	.size	_Z16test_fmsub_s_153v, .-_Z16test_fmsub_s_153v
	.p2align 4
	.globl	_Z16test_fmsub_s_154v
	.type	_Z16test_fmsub_s_154v, @function
_Z16test_fmsub_s_154v:
.LFB3229:
	.cfi_startproc
	endbr64
	jmp	_Z14test_fmadd_s_5v
	.cfi_endproc
.LFE3229:
	.size	_Z16test_fmsub_s_154v, .-_Z16test_fmsub_s_154v
	.p2align 4
	.globl	_Z16test_fmsub_s_155v
	.type	_Z16test_fmsub_s_155v, @function
_Z16test_fmsub_s_155v:
.LFB3651:
	.cfi_startproc
	endbr64
	jmp	_Z14test_fmadd_s_6v
	.cfi_endproc
.LFE3651:
	.size	_Z16test_fmsub_s_155v, .-_Z16test_fmsub_s_155v
	.p2align 4
	.globl	_Z16test_fmsub_s_156v
	.type	_Z16test_fmsub_s_156v, @function
_Z16test_fmsub_s_156v:
.LFB3653:
	.cfi_startproc
	endbr64
	jmp	_Z14test_fmadd_s_6v
	.cfi_endproc
.LFE3653:
	.size	_Z16test_fmsub_s_156v, .-_Z16test_fmsub_s_156v
	.p2align 4
	.globl	_Z16test_fmsub_s_157v
	.type	_Z16test_fmsub_s_157v, @function
_Z16test_fmsub_s_157v:
.LFB3231:
	.cfi_startproc
	endbr64
	jmp	_Z14test_fmadd_s_5v
	.cfi_endproc
.LFE3231:
	.size	_Z16test_fmsub_s_157v, .-_Z16test_fmsub_s_157v
	.p2align 4
	.globl	_Z16test_fmsub_s_158v
	.type	_Z16test_fmsub_s_158v, @function
_Z16test_fmsub_s_158v:
.LFB3233:
	.cfi_startproc
	endbr64
	jmp	_Z14test_fmadd_s_5v
	.cfi_endproc
.LFE3233:
	.size	_Z16test_fmsub_s_158v, .-_Z16test_fmsub_s_158v
	.p2align 4
	.globl	_Z16test_fmsub_s_159v
	.type	_Z16test_fmsub_s_159v, @function
_Z16test_fmsub_s_159v:
.LFB3235:
	.cfi_startproc
	endbr64
	jmp	_Z14test_fmadd_s_5v
	.cfi_endproc
.LFE3235:
	.size	_Z16test_fmsub_s_159v, .-_Z16test_fmsub_s_159v
	.p2align 4
	.globl	_Z16test_fmsub_s_160v
	.type	_Z16test_fmsub_s_160v, @function
_Z16test_fmsub_s_160v:
.LFB3237:
	.cfi_startproc
	endbr64
	jmp	_Z14test_fmadd_s_5v
	.cfi_endproc
.LFE3237:
	.size	_Z16test_fmsub_s_160v, .-_Z16test_fmsub_s_160v
	.p2align 4
	.globl	_Z16test_fmsub_s_161v
	.type	_Z16test_fmsub_s_161v, @function
_Z16test_fmsub_s_161v:
.LFB3655:
	.cfi_startproc
	endbr64
	jmp	_Z14test_fmadd_s_6v
	.cfi_endproc
.LFE3655:
	.size	_Z16test_fmsub_s_161v, .-_Z16test_fmsub_s_161v
	.p2align 4
	.globl	_Z16test_fmsub_s_162v
	.type	_Z16test_fmsub_s_162v, @function
_Z16test_fmsub_s_162v:
.LFB3657:
	.cfi_startproc
	endbr64
	jmp	_Z14test_fmadd_s_6v
	.cfi_endproc
.LFE3657:
	.size	_Z16test_fmsub_s_162v, .-_Z16test_fmsub_s_162v
	.p2align 4
	.globl	_Z16test_fmsub_s_163v
	.type	_Z16test_fmsub_s_163v, @function
_Z16test_fmsub_s_163v:
.LFB3239:
	.cfi_startproc
	endbr64
	jmp	_Z14test_fmadd_s_5v
	.cfi_endproc
.LFE3239:
	.size	_Z16test_fmsub_s_163v, .-_Z16test_fmsub_s_163v
	.p2align 4
	.globl	_Z16test_fmsub_s_164v
	.type	_Z16test_fmsub_s_164v, @function
_Z16test_fmsub_s_164v:
.LFB3241:
	.cfi_startproc
	endbr64
	jmp	_Z14test_fmadd_s_5v
	.cfi_endproc
.LFE3241:
	.size	_Z16test_fmsub_s_164v, .-_Z16test_fmsub_s_164v
	.p2align 4
	.globl	_Z16test_fmsub_s_165v
	.type	_Z16test_fmsub_s_165v, @function
_Z16test_fmsub_s_165v:
.LFB3243:
	.cfi_startproc
	endbr64
	jmp	_Z14test_fmadd_s_5v
	.cfi_endproc
.LFE3243:
	.size	_Z16test_fmsub_s_165v, .-_Z16test_fmsub_s_165v
	.p2align 4
	.globl	_Z16test_fmsub_s_166v
	.type	_Z16test_fmsub_s_166v, @function
_Z16test_fmsub_s_166v:
.LFB3245:
	.cfi_startproc
	endbr64
	jmp	_Z14test_fmadd_s_5v
	.cfi_endproc
.LFE3245:
	.size	_Z16test_fmsub_s_166v, .-_Z16test_fmsub_s_166v
	.p2align 4
	.globl	_Z16test_fmsub_s_167v
	.type	_Z16test_fmsub_s_167v, @function
_Z16test_fmsub_s_167v:
.LFB3659:
	.cfi_startproc
	endbr64
	jmp	_Z14test_fmadd_s_6v
	.cfi_endproc
.LFE3659:
	.size	_Z16test_fmsub_s_167v, .-_Z16test_fmsub_s_167v
	.p2align 4
	.globl	_Z16test_fmsub_s_168v
	.type	_Z16test_fmsub_s_168v, @function
_Z16test_fmsub_s_168v:
.LFB3661:
	.cfi_startproc
	endbr64
	jmp	_Z14test_fmadd_s_6v
	.cfi_endproc
.LFE3661:
	.size	_Z16test_fmsub_s_168v, .-_Z16test_fmsub_s_168v
	.p2align 4
	.globl	_Z16test_fmsub_s_169v
	.type	_Z16test_fmsub_s_169v, @function
_Z16test_fmsub_s_169v:
.LFB3247:
	.cfi_startproc
	endbr64
	jmp	_Z14test_fmadd_s_5v
	.cfi_endproc
.LFE3247:
	.size	_Z16test_fmsub_s_169v, .-_Z16test_fmsub_s_169v
	.p2align 4
	.globl	_Z16test_fmsub_s_170v
	.type	_Z16test_fmsub_s_170v, @function
_Z16test_fmsub_s_170v:
.LFB3249:
	.cfi_startproc
	endbr64
	jmp	_Z14test_fmadd_s_5v
	.cfi_endproc
.LFE3249:
	.size	_Z16test_fmsub_s_170v, .-_Z16test_fmsub_s_170v
	.p2align 4
	.globl	_Z16test_fmsub_s_171v
	.type	_Z16test_fmsub_s_171v, @function
_Z16test_fmsub_s_171v:
.LFB3251:
	.cfi_startproc
	endbr64
	jmp	_Z14test_fmadd_s_5v
	.cfi_endproc
.LFE3251:
	.size	_Z16test_fmsub_s_171v, .-_Z16test_fmsub_s_171v
	.p2align 4
	.globl	_Z16test_fmsub_s_172v
	.type	_Z16test_fmsub_s_172v, @function
_Z16test_fmsub_s_172v:
.LFB3253:
	.cfi_startproc
	endbr64
	jmp	_Z14test_fmadd_s_5v
	.cfi_endproc
.LFE3253:
	.size	_Z16test_fmsub_s_172v, .-_Z16test_fmsub_s_172v
	.p2align 4
	.globl	_Z16test_fmsub_s_173v
	.type	_Z16test_fmsub_s_173v, @function
_Z16test_fmsub_s_173v:
.LFB3663:
	.cfi_startproc
	endbr64
	jmp	_Z14test_fmadd_s_6v
	.cfi_endproc
.LFE3663:
	.size	_Z16test_fmsub_s_173v, .-_Z16test_fmsub_s_173v
	.p2align 4
	.globl	_Z16test_fmsub_s_174v
	.type	_Z16test_fmsub_s_174v, @function
_Z16test_fmsub_s_174v:
.LFB3665:
	.cfi_startproc
	endbr64
	jmp	_Z14test_fmadd_s_6v
	.cfi_endproc
.LFE3665:
	.size	_Z16test_fmsub_s_174v, .-_Z16test_fmsub_s_174v
	.p2align 4
	.globl	_Z16test_fmsub_s_175v
	.type	_Z16test_fmsub_s_175v, @function
_Z16test_fmsub_s_175v:
.LFB3667:
	.cfi_startproc
	endbr64
	jmp	_Z14test_fmadd_s_6v
	.cfi_endproc
.LFE3667:
	.size	_Z16test_fmsub_s_175v, .-_Z16test_fmsub_s_175v
	.p2align 4
	.globl	_Z16test_fmsub_s_176v
	.type	_Z16test_fmsub_s_176v, @function
_Z16test_fmsub_s_176v:
.LFB3669:
	.cfi_startproc
	endbr64
	jmp	_Z14test_fmadd_s_6v
	.cfi_endproc
.LFE3669:
	.size	_Z16test_fmsub_s_176v, .-_Z16test_fmsub_s_176v
	.p2align 4
	.globl	_Z16test_fmsub_s_177v
	.type	_Z16test_fmsub_s_177v, @function
_Z16test_fmsub_s_177v:
.LFB3671:
	.cfi_startproc
	endbr64
	jmp	_Z14test_fmadd_s_6v
	.cfi_endproc
.LFE3671:
	.size	_Z16test_fmsub_s_177v, .-_Z16test_fmsub_s_177v
	.p2align 4
	.globl	_Z16test_fmsub_s_178v
	.type	_Z16test_fmsub_s_178v, @function
_Z16test_fmsub_s_178v:
.LFB3673:
	.cfi_startproc
	endbr64
	jmp	_Z14test_fmadd_s_6v
	.cfi_endproc
.LFE3673:
	.size	_Z16test_fmsub_s_178v, .-_Z16test_fmsub_s_178v
	.p2align 4
	.globl	_Z16test_fmsub_s_179v
	.type	_Z16test_fmsub_s_179v, @function
_Z16test_fmsub_s_179v:
.LFB3675:
	.cfi_startproc
	endbr64
	jmp	_Z14test_fmadd_s_6v
	.cfi_endproc
.LFE3675:
	.size	_Z16test_fmsub_s_179v, .-_Z16test_fmsub_s_179v
	.p2align 4
	.globl	_Z16test_fmsub_s_180v
	.type	_Z16test_fmsub_s_180v, @function
_Z16test_fmsub_s_180v:
.LFB3677:
	.cfi_startproc
	endbr64
	jmp	_Z14test_fmadd_s_6v
	.cfi_endproc
.LFE3677:
	.size	_Z16test_fmsub_s_180v, .-_Z16test_fmsub_s_180v
	.p2align 4
	.globl	_Z16test_fmsub_s_181v
	.type	_Z16test_fmsub_s_181v, @function
_Z16test_fmsub_s_181v:
.LFB3679:
	.cfi_startproc
	endbr64
	jmp	_Z14test_fmadd_s_6v
	.cfi_endproc
.LFE3679:
	.size	_Z16test_fmsub_s_181v, .-_Z16test_fmsub_s_181v
	.p2align 4
	.globl	_Z16test_fmsub_s_182v
	.type	_Z16test_fmsub_s_182v, @function
_Z16test_fmsub_s_182v:
.LFB3681:
	.cfi_startproc
	endbr64
	jmp	_Z14test_fmadd_s_6v
	.cfi_endproc
.LFE3681:
	.size	_Z16test_fmsub_s_182v, .-_Z16test_fmsub_s_182v
	.p2align 4
	.globl	_Z16test_fmsub_s_183v
	.type	_Z16test_fmsub_s_183v, @function
_Z16test_fmsub_s_183v:
.LFB3683:
	.cfi_startproc
	endbr64
	jmp	_Z14test_fmadd_s_6v
	.cfi_endproc
.LFE3683:
	.size	_Z16test_fmsub_s_183v, .-_Z16test_fmsub_s_183v
	.p2align 4
	.globl	_Z16test_fmsub_s_184v
	.type	_Z16test_fmsub_s_184v, @function
_Z16test_fmsub_s_184v:
.LFB3685:
	.cfi_startproc
	endbr64
	jmp	_Z14test_fmadd_s_6v
	.cfi_endproc
.LFE3685:
	.size	_Z16test_fmsub_s_184v, .-_Z16test_fmsub_s_184v
	.p2align 4
	.globl	_Z16test_fmsub_s_185v
	.type	_Z16test_fmsub_s_185v, @function
_Z16test_fmsub_s_185v:
.LFB3687:
	.cfi_startproc
	endbr64
	jmp	_Z14test_fmadd_s_6v
	.cfi_endproc
.LFE3687:
	.size	_Z16test_fmsub_s_185v, .-_Z16test_fmsub_s_185v
	.p2align 4
	.globl	_Z16test_fmsub_s_186v
	.type	_Z16test_fmsub_s_186v, @function
_Z16test_fmsub_s_186v:
.LFB3689:
	.cfi_startproc
	endbr64
	jmp	_Z14test_fmadd_s_6v
	.cfi_endproc
.LFE3689:
	.size	_Z16test_fmsub_s_186v, .-_Z16test_fmsub_s_186v
	.p2align 4
	.globl	_Z16test_fmsub_s_187v
	.type	_Z16test_fmsub_s_187v, @function
_Z16test_fmsub_s_187v:
.LFB3691:
	.cfi_startproc
	endbr64
	jmp	_Z14test_fmadd_s_6v
	.cfi_endproc
.LFE3691:
	.size	_Z16test_fmsub_s_187v, .-_Z16test_fmsub_s_187v
	.p2align 4
	.globl	_Z16test_fmsub_s_188v
	.type	_Z16test_fmsub_s_188v, @function
_Z16test_fmsub_s_188v:
.LFB3693:
	.cfi_startproc
	endbr64
	jmp	_Z14test_fmadd_s_6v
	.cfi_endproc
.LFE3693:
	.size	_Z16test_fmsub_s_188v, .-_Z16test_fmsub_s_188v
	.p2align 4
	.globl	_Z16test_fmsub_s_189v
	.type	_Z16test_fmsub_s_189v, @function
_Z16test_fmsub_s_189v:
.LFB3695:
	.cfi_startproc
	endbr64
	jmp	_Z14test_fmadd_s_6v
	.cfi_endproc
.LFE3695:
	.size	_Z16test_fmsub_s_189v, .-_Z16test_fmsub_s_189v
	.p2align 4
	.globl	_Z16test_fmsub_s_190v
	.type	_Z16test_fmsub_s_190v, @function
_Z16test_fmsub_s_190v:
.LFB3697:
	.cfi_startproc
	endbr64
	jmp	_Z14test_fmadd_s_6v
	.cfi_endproc
.LFE3697:
	.size	_Z16test_fmsub_s_190v, .-_Z16test_fmsub_s_190v
	.p2align 4
	.globl	_Z16test_fmsub_s_191v
	.type	_Z16test_fmsub_s_191v, @function
_Z16test_fmsub_s_191v:
.LFB3699:
	.cfi_startproc
	endbr64
	jmp	_Z14test_fmadd_s_6v
	.cfi_endproc
.LFE3699:
	.size	_Z16test_fmsub_s_191v, .-_Z16test_fmsub_s_191v
	.p2align 4
	.globl	_Z16test_fmsub_s_192v
	.type	_Z16test_fmsub_s_192v, @function
_Z16test_fmsub_s_192v:
.LFB3701:
	.cfi_startproc
	endbr64
	jmp	_Z14test_fmadd_s_6v
	.cfi_endproc
.LFE3701:
	.size	_Z16test_fmsub_s_192v, .-_Z16test_fmsub_s_192v
	.p2align 4
	.globl	_Z16test_fmsub_s_193v
	.type	_Z16test_fmsub_s_193v, @function
_Z16test_fmsub_s_193v:
.LFB3703:
	.cfi_startproc
	endbr64
	jmp	_Z14test_fmadd_s_6v
	.cfi_endproc
.LFE3703:
	.size	_Z16test_fmsub_s_193v, .-_Z16test_fmsub_s_193v
	.p2align 4
	.globl	_Z16test_fmsub_s_194v
	.type	_Z16test_fmsub_s_194v, @function
_Z16test_fmsub_s_194v:
.LFB3705:
	.cfi_startproc
	endbr64
	jmp	_Z14test_fmadd_s_6v
	.cfi_endproc
.LFE3705:
	.size	_Z16test_fmsub_s_194v, .-_Z16test_fmsub_s_194v
	.p2align 4
	.globl	_Z16test_fmsub_s_195v
	.type	_Z16test_fmsub_s_195v, @function
_Z16test_fmsub_s_195v:
.LFB3707:
	.cfi_startproc
	endbr64
	jmp	_Z14test_fmadd_s_6v
	.cfi_endproc
.LFE3707:
	.size	_Z16test_fmsub_s_195v, .-_Z16test_fmsub_s_195v
	.p2align 4
	.globl	_Z16test_fmsub_s_196v
	.type	_Z16test_fmsub_s_196v, @function
_Z16test_fmsub_s_196v:
.LFB3709:
	.cfi_startproc
	endbr64
	jmp	_Z14test_fmadd_s_6v
	.cfi_endproc
.LFE3709:
	.size	_Z16test_fmsub_s_196v, .-_Z16test_fmsub_s_196v
	.p2align 4
	.globl	_Z16test_fmsub_s_197v
	.type	_Z16test_fmsub_s_197v, @function
_Z16test_fmsub_s_197v:
.LFB3711:
	.cfi_startproc
	endbr64
	jmp	_Z14test_fmadd_s_6v
	.cfi_endproc
.LFE3711:
	.size	_Z16test_fmsub_s_197v, .-_Z16test_fmsub_s_197v
	.p2align 4
	.globl	_Z16test_fmsub_s_198v
	.type	_Z16test_fmsub_s_198v, @function
_Z16test_fmsub_s_198v:
.LFB3713:
	.cfi_startproc
	endbr64
	jmp	_Z14test_fmadd_s_6v
	.cfi_endproc
.LFE3713:
	.size	_Z16test_fmsub_s_198v, .-_Z16test_fmsub_s_198v
	.p2align 4
	.globl	_Z16test_fmsub_s_199v
	.type	_Z16test_fmsub_s_199v, @function
_Z16test_fmsub_s_199v:
.LFB3715:
	.cfi_startproc
	endbr64
	jmp	_Z14test_fmadd_s_6v
	.cfi_endproc
.LFE3715:
	.size	_Z16test_fmsub_s_199v, .-_Z16test_fmsub_s_199v
	.p2align 4
	.globl	_Z16test_fmsub_s_200v
	.type	_Z16test_fmsub_s_200v, @function
_Z16test_fmsub_s_200v:
.LFB3717:
	.cfi_startproc
	endbr64
	jmp	_Z14test_fmadd_s_6v
	.cfi_endproc
.LFE3717:
	.size	_Z16test_fmsub_s_200v, .-_Z16test_fmsub_s_200v
	.p2align 4
	.globl	_Z16test_fmsub_s_201v
	.type	_Z16test_fmsub_s_201v, @function
_Z16test_fmsub_s_201v:
.LFB3719:
	.cfi_startproc
	endbr64
	jmp	_Z14test_fmadd_s_6v
	.cfi_endproc
.LFE3719:
	.size	_Z16test_fmsub_s_201v, .-_Z16test_fmsub_s_201v
	.p2align 4
	.globl	_Z16test_fmsub_s_202v
	.type	_Z16test_fmsub_s_202v, @function
_Z16test_fmsub_s_202v:
.LFB3721:
	.cfi_startproc
	endbr64
	jmp	_Z14test_fmadd_s_6v
	.cfi_endproc
.LFE3721:
	.size	_Z16test_fmsub_s_202v, .-_Z16test_fmsub_s_202v
	.p2align 4
	.globl	_Z16test_fmsub_s_203v
	.type	_Z16test_fmsub_s_203v, @function
_Z16test_fmsub_s_203v:
.LFB3723:
	.cfi_startproc
	endbr64
	jmp	_Z14test_fmadd_s_6v
	.cfi_endproc
.LFE3723:
	.size	_Z16test_fmsub_s_203v, .-_Z16test_fmsub_s_203v
	.p2align 4
	.globl	_Z16test_fmsub_s_204v
	.type	_Z16test_fmsub_s_204v, @function
_Z16test_fmsub_s_204v:
.LFB3725:
	.cfi_startproc
	endbr64
	jmp	_Z14test_fmadd_s_6v
	.cfi_endproc
.LFE3725:
	.size	_Z16test_fmsub_s_204v, .-_Z16test_fmsub_s_204v
	.p2align 4
	.globl	_Z16test_fmsub_s_205v
	.type	_Z16test_fmsub_s_205v, @function
_Z16test_fmsub_s_205v:
.LFB3727:
	.cfi_startproc
	endbr64
	jmp	_Z14test_fmadd_s_6v
	.cfi_endproc
.LFE3727:
	.size	_Z16test_fmsub_s_205v, .-_Z16test_fmsub_s_205v
	.p2align 4
	.globl	_Z16test_fmsub_s_206v
	.type	_Z16test_fmsub_s_206v, @function
_Z16test_fmsub_s_206v:
.LFB3729:
	.cfi_startproc
	endbr64
	jmp	_Z14test_fmadd_s_6v
	.cfi_endproc
.LFE3729:
	.size	_Z16test_fmsub_s_206v, .-_Z16test_fmsub_s_206v
	.p2align 4
	.globl	_Z16test_fmsub_s_207v
	.type	_Z16test_fmsub_s_207v, @function
_Z16test_fmsub_s_207v:
.LFB3731:
	.cfi_startproc
	endbr64
	jmp	_Z14test_fmadd_s_6v
	.cfi_endproc
.LFE3731:
	.size	_Z16test_fmsub_s_207v, .-_Z16test_fmsub_s_207v
	.p2align 4
	.globl	_Z16test_fmsub_s_208v
	.type	_Z16test_fmsub_s_208v, @function
_Z16test_fmsub_s_208v:
.LFB3733:
	.cfi_startproc
	endbr64
	jmp	_Z14test_fmadd_s_6v
	.cfi_endproc
.LFE3733:
	.size	_Z16test_fmsub_s_208v, .-_Z16test_fmsub_s_208v
	.p2align 4
	.globl	_Z16test_fmsub_s_209v
	.type	_Z16test_fmsub_s_209v, @function
_Z16test_fmsub_s_209v:
.LFB3735:
	.cfi_startproc
	endbr64
	jmp	_Z14test_fmadd_s_6v
	.cfi_endproc
.LFE3735:
	.size	_Z16test_fmsub_s_209v, .-_Z16test_fmsub_s_209v
	.p2align 4
	.globl	_Z16test_fmsub_s_210v
	.type	_Z16test_fmsub_s_210v, @function
_Z16test_fmsub_s_210v:
.LFB3737:
	.cfi_startproc
	endbr64
	jmp	_Z14test_fmadd_s_6v
	.cfi_endproc
.LFE3737:
	.size	_Z16test_fmsub_s_210v, .-_Z16test_fmsub_s_210v
	.p2align 4
	.globl	_Z16test_fmsub_s_211v
	.type	_Z16test_fmsub_s_211v, @function
_Z16test_fmsub_s_211v:
.LFB3739:
	.cfi_startproc
	endbr64
	jmp	_Z14test_fmadd_s_6v
	.cfi_endproc
.LFE3739:
	.size	_Z16test_fmsub_s_211v, .-_Z16test_fmsub_s_211v
	.p2align 4
	.globl	_Z16test_fmsub_s_212v
	.type	_Z16test_fmsub_s_212v, @function
_Z16test_fmsub_s_212v:
.LFB3741:
	.cfi_startproc
	endbr64
	jmp	_Z14test_fmadd_s_6v
	.cfi_endproc
.LFE3741:
	.size	_Z16test_fmsub_s_212v, .-_Z16test_fmsub_s_212v
	.p2align 4
	.globl	_Z16test_fmsub_s_213v
	.type	_Z16test_fmsub_s_213v, @function
_Z16test_fmsub_s_213v:
.LFB3743:
	.cfi_startproc
	endbr64
	jmp	_Z14test_fmadd_s_6v
	.cfi_endproc
.LFE3743:
	.size	_Z16test_fmsub_s_213v, .-_Z16test_fmsub_s_213v
	.p2align 4
	.globl	_Z16test_fmsub_s_214v
	.type	_Z16test_fmsub_s_214v, @function
_Z16test_fmsub_s_214v:
.LFB3745:
	.cfi_startproc
	endbr64
	jmp	_Z14test_fmadd_s_6v
	.cfi_endproc
.LFE3745:
	.size	_Z16test_fmsub_s_214v, .-_Z16test_fmsub_s_214v
	.p2align 4
	.globl	_Z16test_fmsub_s_215v
	.type	_Z16test_fmsub_s_215v, @function
_Z16test_fmsub_s_215v:
.LFB3747:
	.cfi_startproc
	endbr64
	jmp	_Z14test_fmadd_s_6v
	.cfi_endproc
.LFE3747:
	.size	_Z16test_fmsub_s_215v, .-_Z16test_fmsub_s_215v
	.p2align 4
	.globl	_Z16test_fmsub_s_216v
	.type	_Z16test_fmsub_s_216v, @function
_Z16test_fmsub_s_216v:
.LFB3749:
	.cfi_startproc
	endbr64
	jmp	_Z14test_fmadd_s_6v
	.cfi_endproc
.LFE3749:
	.size	_Z16test_fmsub_s_216v, .-_Z16test_fmsub_s_216v
	.p2align 4
	.globl	_Z15test_fnmsub_s_1v
	.type	_Z15test_fnmsub_s_1v, @function
_Z15test_fnmsub_s_1v:
.LFB4123:
	.cfi_startproc
	endbr64
	pushq	%rbp
	.cfi_def_cfa_offset 16
	.cfi_offset 6, -16
	xorl	%edi, %edi
	movq	%rsp, %rbp
	.cfi_def_cfa_register 6
	call	_ZN5riscv10fenv_setrmEi
	movl	$1, %edi
	movl	$1, %eax
	popq	%rbp
	.cfi_def_cfa 7, 8
	movsd	.LC19(%rip), %xmm0
	leaq	.LC13(%rip), %rsi
	jmp	__printf_chk@PLT
	.cfi_endproc
.LFE4123:
	.size	_Z15test_fnmsub_s_1v, .-_Z15test_fnmsub_s_1v
	.p2align 4
	.globl	_Z15test_fnmsub_s_2v
	.type	_Z15test_fnmsub_s_2v, @function
_Z15test_fnmsub_s_2v:
.LFB4137:
	.cfi_startproc
	endbr64
	pushq	%rbp
	.cfi_def_cfa_offset 16
	.cfi_offset 6, -16
	xorl	%edi, %edi
	movq	%rsp, %rbp
	.cfi_def_cfa_register 6
	call	_ZN5riscv10fenv_setrmEi
	movl	$1, %edi
	movl	$1, %eax
	popq	%rbp
	.cfi_def_cfa 7, 8
	movsd	.LC20(%rip), %xmm0
	leaq	.LC13(%rip), %rsi
	jmp	__printf_chk@PLT
	.cfi_endproc
.LFE4137:
	.size	_Z15test_fnmsub_s_2v, .-_Z15test_fnmsub_s_2v
	.p2align 4
	.globl	_Z15test_fnmsub_s_3v
	.type	_Z15test_fnmsub_s_3v, @function
_Z15test_fnmsub_s_3v:
.LFB4151:
	.cfi_startproc
	endbr64
	pushq	%rbp
	.cfi_def_cfa_offset 16
	.cfi_offset 6, -16
	xorl	%edi, %edi
	movq	%rsp, %rbp
	.cfi_def_cfa_register 6
	call	_ZN5riscv10fenv_setrmEi
	movl	$1, %edi
	movl	$1, %eax
	popq	%rbp
	.cfi_def_cfa 7, 8
	movsd	.LC21(%rip), %xmm0
	leaq	.LC13(%rip), %rsi
	jmp	__printf_chk@PLT
	.cfi_endproc
.LFE4151:
	.size	_Z15test_fnmsub_s_3v, .-_Z15test_fnmsub_s_3v
	.p2align 4
	.globl	_Z15test_fnmsub_s_4v
	.type	_Z15test_fnmsub_s_4v, @function
_Z15test_fnmsub_s_4v:
.LFB4157:
	.cfi_startproc
	endbr64
	pushq	%rbp
	.cfi_def_cfa_offset 16
	.cfi_offset 6, -16
	xorl	%edi, %edi
	movq	%rsp, %rbp
	.cfi_def_cfa_register 6
	call	_ZN5riscv10fenv_setrmEi
	movl	$1, %edi
	movl	$1, %eax
	popq	%rbp
	.cfi_def_cfa 7, 8
	movsd	.LC22(%rip), %xmm0
	leaq	.LC13(%rip), %rsi
	jmp	__printf_chk@PLT
	.cfi_endproc
.LFE4157:
	.size	_Z15test_fnmsub_s_4v, .-_Z15test_fnmsub_s_4v
	.p2align 4
	.globl	_Z15test_fnmsub_s_5v
	.type	_Z15test_fnmsub_s_5v, @function
_Z15test_fnmsub_s_5v:
.LFB3255:
	.cfi_startproc
	endbr64
	jmp	_Z14test_fmadd_s_5v
	.cfi_endproc
.LFE3255:
	.size	_Z15test_fnmsub_s_5v, .-_Z15test_fnmsub_s_5v
	.p2align 4
	.globl	_Z15test_fnmsub_s_6v
	.type	_Z15test_fnmsub_s_6v, @function
_Z15test_fnmsub_s_6v:
.LFB3751:
	.cfi_startproc
	endbr64
	jmp	_Z14test_fmadd_s_6v
	.cfi_endproc
.LFE3751:
	.size	_Z15test_fnmsub_s_6v, .-_Z15test_fnmsub_s_6v
	.p2align 4
	.globl	_Z15test_fnmsub_s_7v
	.type	_Z15test_fnmsub_s_7v, @function
_Z15test_fnmsub_s_7v:
.LFB3057:
	.cfi_startproc
	endbr64
	pushq	%rbp
	.cfi_def_cfa_offset 16
	.cfi_offset 6, -16
	xorl	%edi, %edi
	movq	%rsp, %rbp
	.cfi_def_cfa_register 6
	call	_ZN5riscv10fenv_setrmEi
	movl	$1, %edi
	movl	$1, %eax
	popq	%rbp
	.cfi_def_cfa 7, 8
	movsd	.LC12(%rip), %xmm0
	leaq	.LC13(%rip), %rsi
	jmp	__printf_chk@PLT
	.cfi_endproc
.LFE3057:
	.size	_Z15test_fnmsub_s_7v, .-_Z15test_fnmsub_s_7v
	.p2align 4
	.globl	_Z15test_fnmsub_s_8v
	.type	_Z15test_fnmsub_s_8v, @function
_Z15test_fnmsub_s_8v:
.LFB3079:
	.cfi_startproc
	endbr64
	pushq	%rbp
	.cfi_def_cfa_offset 16
	.cfi_offset 6, -16
	xorl	%edi, %edi
	movq	%rsp, %rbp
	.cfi_def_cfa_register 6
	call	_ZN5riscv10fenv_setrmEi
	movl	$1, %edi
	movl	$1, %eax
	popq	%rbp
	.cfi_def_cfa 7, 8
	movsd	.LC14(%rip), %xmm0
	leaq	.LC13(%rip), %rsi
	jmp	__printf_chk@PLT
	.cfi_endproc
.LFE3079:
	.size	_Z15test_fnmsub_s_8v, .-_Z15test_fnmsub_s_8v
	.p2align 4
	.globl	_Z15test_fnmsub_s_9v
	.type	_Z15test_fnmsub_s_9v, @function
_Z15test_fnmsub_s_9v:
.LFB3089:
	.cfi_startproc
	endbr64
	pushq	%rbp
	.cfi_def_cfa_offset 16
	.cfi_offset 6, -16
	xorl	%edi, %edi
	movq	%rsp, %rbp
	.cfi_def_cfa_register 6
	call	_ZN5riscv10fenv_setrmEi
	movl	$1, %edi
	movl	$1, %eax
	popq	%rbp
	.cfi_def_cfa 7, 8
	movsd	.LC15(%rip), %xmm0
	leaq	.LC13(%rip), %rsi
	jmp	__printf_chk@PLT
	.cfi_endproc
.LFE3089:
	.size	_Z15test_fnmsub_s_9v, .-_Z15test_fnmsub_s_9v
	.p2align 4
	.globl	_Z16test_fnmsub_s_10v
	.type	_Z16test_fnmsub_s_10v, @function
_Z16test_fnmsub_s_10v:
.LFB3095:
	.cfi_startproc
	endbr64
	pushq	%rbp
	.cfi_def_cfa_offset 16
	.cfi_offset 6, -16
	xorl	%edi, %edi
	movq	%rsp, %rbp
	.cfi_def_cfa_register 6
	call	_ZN5riscv10fenv_setrmEi
	movl	$1, %edi
	movl	$1, %eax
	popq	%rbp
	.cfi_def_cfa 7, 8
	movsd	.LC16(%rip), %xmm0
	leaq	.LC13(%rip), %rsi
	jmp	__printf_chk@PLT
	.cfi_endproc
.LFE3095:
	.size	_Z16test_fnmsub_s_10v, .-_Z16test_fnmsub_s_10v
	.p2align 4
	.globl	_Z16test_fnmsub_s_11v
	.type	_Z16test_fnmsub_s_11v, @function
_Z16test_fnmsub_s_11v:
.LFB3257:
	.cfi_startproc
	endbr64
	jmp	_Z14test_fmadd_s_5v
	.cfi_endproc
.LFE3257:
	.size	_Z16test_fnmsub_s_11v, .-_Z16test_fnmsub_s_11v
	.p2align 4
	.globl	_Z16test_fnmsub_s_12v
	.type	_Z16test_fnmsub_s_12v, @function
_Z16test_fnmsub_s_12v:
.LFB3753:
	.cfi_startproc
	endbr64
	jmp	_Z14test_fmadd_s_6v
	.cfi_endproc
.LFE3753:
	.size	_Z16test_fnmsub_s_12v, .-_Z16test_fnmsub_s_12v
	.p2align 4
	.globl	_Z16test_fnmsub_s_13v
	.type	_Z16test_fnmsub_s_13v, @function
_Z16test_fnmsub_s_13v:
.LFB4575:
	.cfi_startproc
	endbr64
	pushq	%rbp
	.cfi_def_cfa_offset 16
	.cfi_offset 6, -16
	xorl	%edi, %edi
	movq	%rsp, %rbp
	.cfi_def_cfa_register 6
	call	_ZN5riscv10fenv_setrmEi
	movl	$1, %edi
	movl	$1, %eax
	popq	%rbp
	.cfi_def_cfa 7, 8
	movsd	.LC31(%rip), %xmm0
	leaq	.LC13(%rip), %rsi
	jmp	__printf_chk@PLT
	.cfi_endproc
.LFE4575:
	.size	_Z16test_fnmsub_s_13v, .-_Z16test_fnmsub_s_13v
	.p2align 4
	.globl	_Z16test_fnmsub_s_14v
	.type	_Z16test_fnmsub_s_14v, @function
_Z16test_fnmsub_s_14v:
.LFB4599:
	.cfi_startproc
	endbr64
	pushq	%rbp
	.cfi_def_cfa_offset 16
	.cfi_offset 6, -16
	xorl	%edi, %edi
	movq	%rsp, %rbp
	.cfi_def_cfa_register 6
	call	_ZN5riscv10fenv_setrmEi
	movl	$1, %edi
	movl	$1, %eax
	popq	%rbp
	.cfi_def_cfa 7, 8
	movsd	.LC32(%rip), %xmm0
	leaq	.LC13(%rip), %rsi
	jmp	__printf_chk@PLT
	.cfi_endproc
.LFE4599:
	.size	_Z16test_fnmsub_s_14v, .-_Z16test_fnmsub_s_14v
	.p2align 4
	.globl	_Z16test_fnmsub_s_15v
	.type	_Z16test_fnmsub_s_15v, @function
_Z16test_fnmsub_s_15v:
.LFB4621:
	.cfi_startproc
	endbr64
	pushq	%rbp
	.cfi_def_cfa_offset 16
	.cfi_offset 6, -16
	xorl	%edi, %edi
	movq	%rsp, %rbp
	.cfi_def_cfa_register 6
	call	_ZN5riscv10fenv_setrmEi
	movl	$1, %edi
	movl	$1, %eax
	popq	%rbp
	.cfi_def_cfa 7, 8
	movsd	.LC33(%rip), %xmm0
	leaq	.LC13(%rip), %rsi
	jmp	__printf_chk@PLT
	.cfi_endproc
.LFE4621:
	.size	_Z16test_fnmsub_s_15v, .-_Z16test_fnmsub_s_15v
	.p2align 4
	.globl	_Z16test_fnmsub_s_16v
	.type	_Z16test_fnmsub_s_16v, @function
_Z16test_fnmsub_s_16v:
.LFB4273:
	.cfi_startproc
	endbr64
	pushq	%rbp
	.cfi_def_cfa_offset 16
	.cfi_offset 6, -16
	xorl	%edi, %edi
	movq	%rsp, %rbp
	.cfi_def_cfa_register 6
	call	_ZN5riscv10fenv_setrmEi
	movl	$1, %edi
	movl	$1, %eax
	popq	%rbp
	.cfi_def_cfa 7, 8
	movsd	.LC27(%rip), %xmm0
	leaq	.LC13(%rip), %rsi
	jmp	__printf_chk@PLT
	.cfi_endproc
.LFE4273:
	.size	_Z16test_fnmsub_s_16v, .-_Z16test_fnmsub_s_16v
	.p2align 4
	.globl	_Z16test_fnmsub_s_17v
	.type	_Z16test_fnmsub_s_17v, @function
_Z16test_fnmsub_s_17v:
.LFB3259:
	.cfi_startproc
	endbr64
	jmp	_Z14test_fmadd_s_5v
	.cfi_endproc
.LFE3259:
	.size	_Z16test_fnmsub_s_17v, .-_Z16test_fnmsub_s_17v
	.p2align 4
	.globl	_Z16test_fnmsub_s_18v
	.type	_Z16test_fnmsub_s_18v, @function
_Z16test_fnmsub_s_18v:
.LFB3755:
	.cfi_startproc
	endbr64
	jmp	_Z14test_fmadd_s_6v
	.cfi_endproc
.LFE3755:
	.size	_Z16test_fnmsub_s_18v, .-_Z16test_fnmsub_s_18v
	.p2align 4
	.globl	_Z16test_fnmsub_s_19v
	.type	_Z16test_fnmsub_s_19v, @function
_Z16test_fnmsub_s_19v:
.LFB4643:
	.cfi_startproc
	endbr64
	pushq	%rbp
	.cfi_def_cfa_offset 16
	.cfi_offset 6, -16
	xorl	%edi, %edi
	movq	%rsp, %rbp
	.cfi_def_cfa_register 6
	call	_ZN5riscv10fenv_setrmEi
	movl	$1, %edi
	movl	$1, %eax
	popq	%rbp
	.cfi_def_cfa 7, 8
	movsd	.LC11(%rip), %xmm0
	leaq	.LC13(%rip), %rsi
	jmp	__printf_chk@PLT
	.cfi_endproc
.LFE4643:
	.size	_Z16test_fnmsub_s_19v, .-_Z16test_fnmsub_s_19v
	.p2align 4
	.globl	_Z16test_fnmsub_s_20v
	.type	_Z16test_fnmsub_s_20v, @function
_Z16test_fnmsub_s_20v:
.LFB4669:
	.cfi_startproc
	endbr64
	pushq	%rbp
	.cfi_def_cfa_offset 16
	.cfi_offset 6, -16
	xorl	%edi, %edi
	movq	%rsp, %rbp
	.cfi_def_cfa_register 6
	call	_ZN5riscv10fenv_setrmEi
	movl	$1, %edi
	movl	$1, %eax
	popq	%rbp
	.cfi_def_cfa 7, 8
	movsd	.LC34(%rip), %xmm0
	leaq	.LC13(%rip), %rsi
	jmp	__printf_chk@PLT
	.cfi_endproc
.LFE4669:
	.size	_Z16test_fnmsub_s_20v, .-_Z16test_fnmsub_s_20v
	.p2align 4
	.globl	_Z16test_fnmsub_s_21v
	.type	_Z16test_fnmsub_s_21v, @function
_Z16test_fnmsub_s_21v:
.LFB4679:
	.cfi_startproc
	endbr64
	pushq	%rbp
	.cfi_def_cfa_offset 16
	.cfi_offset 6, -16
	xorl	%edi, %edi
	movq	%rsp, %rbp
	.cfi_def_cfa_register 6
	call	_ZN5riscv10fenv_setrmEi
	movl	$1, %edi
	movl	$1, %eax
	popq	%rbp
	.cfi_def_cfa 7, 8
	movsd	.LC35(%rip), %xmm0
	leaq	.LC13(%rip), %rsi
	jmp	__printf_chk@PLT
	.cfi_endproc
.LFE4679:
	.size	_Z16test_fnmsub_s_21v, .-_Z16test_fnmsub_s_21v
	.p2align 4
	.globl	_Z16test_fnmsub_s_22v
	.type	_Z16test_fnmsub_s_22v, @function
_Z16test_fnmsub_s_22v:
.LFB4187:
	.cfi_startproc
	endbr64
	pushq	%rbp
	.cfi_def_cfa_offset 16
	.cfi_offset 6, -16
	xorl	%edi, %edi
	movq	%rsp, %rbp
	.cfi_def_cfa_register 6
	call	_ZN5riscv10fenv_setrmEi
	movl	$1, %edi
	movl	$1, %eax
	popq	%rbp
	.cfi_def_cfa 7, 8
	movsd	.LC24(%rip), %xmm0
	leaq	.LC13(%rip), %rsi
	jmp	__printf_chk@PLT
	.cfi_endproc
.LFE4187:
	.size	_Z16test_fnmsub_s_22v, .-_Z16test_fnmsub_s_22v
	.p2align 4
	.globl	_Z16test_fnmsub_s_23v
	.type	_Z16test_fnmsub_s_23v, @function
_Z16test_fnmsub_s_23v:
.LFB3261:
	.cfi_startproc
	endbr64
	jmp	_Z14test_fmadd_s_5v
	.cfi_endproc
.LFE3261:
	.size	_Z16test_fnmsub_s_23v, .-_Z16test_fnmsub_s_23v
	.p2align 4
	.globl	_Z16test_fnmsub_s_24v
	.type	_Z16test_fnmsub_s_24v, @function
_Z16test_fnmsub_s_24v:
.LFB3757:
	.cfi_startproc
	endbr64
	jmp	_Z14test_fmadd_s_6v
	.cfi_endproc
.LFE3757:
	.size	_Z16test_fnmsub_s_24v, .-_Z16test_fnmsub_s_24v
	.p2align 4
	.globl	_Z16test_fnmsub_s_25v
	.type	_Z16test_fnmsub_s_25v, @function
_Z16test_fnmsub_s_25v:
.LFB3263:
	.cfi_startproc
	endbr64
	jmp	_Z14test_fmadd_s_5v
	.cfi_endproc
.LFE3263:
	.size	_Z16test_fnmsub_s_25v, .-_Z16test_fnmsub_s_25v
	.p2align 4
	.globl	_Z16test_fnmsub_s_26v
	.type	_Z16test_fnmsub_s_26v, @function
_Z16test_fnmsub_s_26v:
.LFB3265:
	.cfi_startproc
	endbr64
	jmp	_Z14test_fmadd_s_5v
	.cfi_endproc
.LFE3265:
	.size	_Z16test_fnmsub_s_26v, .-_Z16test_fnmsub_s_26v
	.p2align 4
	.globl	_Z16test_fnmsub_s_27v
	.type	_Z16test_fnmsub_s_27v, @function
_Z16test_fnmsub_s_27v:
.LFB3267:
	.cfi_startproc
	endbr64
	jmp	_Z14test_fmadd_s_5v
	.cfi_endproc
.LFE3267:
	.size	_Z16test_fnmsub_s_27v, .-_Z16test_fnmsub_s_27v
	.p2align 4
	.globl	_Z16test_fnmsub_s_28v
	.type	_Z16test_fnmsub_s_28v, @function
_Z16test_fnmsub_s_28v:
.LFB3269:
	.cfi_startproc
	endbr64
	jmp	_Z14test_fmadd_s_5v
	.cfi_endproc
.LFE3269:
	.size	_Z16test_fnmsub_s_28v, .-_Z16test_fnmsub_s_28v
	.p2align 4
	.globl	_Z16test_fnmsub_s_29v
	.type	_Z16test_fnmsub_s_29v, @function
_Z16test_fnmsub_s_29v:
.LFB3271:
	.cfi_startproc
	endbr64
	jmp	_Z14test_fmadd_s_5v
	.cfi_endproc
.LFE3271:
	.size	_Z16test_fnmsub_s_29v, .-_Z16test_fnmsub_s_29v
	.p2align 4
	.globl	_Z16test_fnmsub_s_30v
	.type	_Z16test_fnmsub_s_30v, @function
_Z16test_fnmsub_s_30v:
.LFB3759:
	.cfi_startproc
	endbr64
	jmp	_Z14test_fmadd_s_6v
	.cfi_endproc
.LFE3759:
	.size	_Z16test_fnmsub_s_30v, .-_Z16test_fnmsub_s_30v
	.p2align 4
	.globl	_Z16test_fnmsub_s_31v
	.type	_Z16test_fnmsub_s_31v, @function
_Z16test_fnmsub_s_31v:
.LFB1051:
	.loc 2 4570 1 is_stmt 1 view -0
	.cfi_startproc
	endbr64
	.loc 2 4571 2 view .LVU1620
.LVL355:
	.loc 2 4572 2 view .LVU1621
	.loc 2 4573 2 view .LVU1622
	.loc 2 4574 2 view .LVU1623
.LBB17143:
.LBI17143:
	.loc 2 41 16 view .LVU1624
.LBB17144:
	.loc 2 43 2 view .LVU1625
	.loc 2 44 2 view .LVU1626
.LBE17144:
.LBE17143:
	.loc 2 4570 1 is_stmt 0 view .LVU1627
	pushq	%rbp
	.cfi_def_cfa_offset 16
	.cfi_offset 6, -16
.LBB17147:
.LBB17145:
	.loc 2 44 12 view .LVU1628
	xorl	%edi, %edi
.LBE17145:
.LBE17147:
	.loc 2 4570 1 view .LVU1629
	movq	%rsp, %rbp
	.cfi_def_cfa_register 6
.LBB17148:
.LBB17146:
	.loc 2 44 12 view .LVU1630
	call	_ZN5riscv10fenv_setrmEi
.LVL356:
	.loc 2 44 18 is_stmt 1 view .LVU1631
	.loc 2 45 2 view .LVU1632
	.loc 2 45 2 is_stmt 0 view .LVU1633
.LBE17146:
.LBE17148:
	.loc 2 4575 2 is_stmt 1 view .LVU1634
.LBB17149:
.LBI17149:
	.loc 4 105 1 view .LVU1635
.LBB17150:
	.loc 4 107 3 view .LVU1636
	.loc 4 107 23 is_stmt 0 view .LVU1637
	movl	$1, %edi
	movl	$1, %eax
.LBE17150:
.LBE17149:
	.loc 2 4576 1 view .LVU1638
	popq	%rbp
	.cfi_def_cfa 7, 8
.LBB17152:
.LBB17151:
	.loc 4 107 23 view .LVU1639
	movsd	.LC57(%rip), %xmm0
	leaq	.LC13(%rip), %rsi
	jmp	__printf_chk@PLT
.LVL357:
.LBE17151:
.LBE17152:
	.cfi_endproc
.LFE1051:
	.size	_Z16test_fnmsub_s_31v, .-_Z16test_fnmsub_s_31v
	.p2align 4
	.globl	_Z16test_fnmsub_s_32v
	.type	_Z16test_fnmsub_s_32v, @function
_Z16test_fnmsub_s_32v:
.LFB4799:
	.cfi_startproc
	endbr64
	pushq	%rbp
	.cfi_def_cfa_offset 16
	.cfi_offset 6, -16
	xorl	%edi, %edi
	movq	%rsp, %rbp
	.cfi_def_cfa_register 6
	call	_ZN5riscv10fenv_setrmEi
	movl	$1, %edi
	movl	$1, %eax
	popq	%rbp
	.cfi_def_cfa 7, 8
	movsd	.LC57(%rip), %xmm0
	leaq	.LC13(%rip), %rsi
	jmp	__printf_chk@PLT
	.cfi_endproc
.LFE4799:
	.size	_Z16test_fnmsub_s_32v, .-_Z16test_fnmsub_s_32v
	.p2align 4
	.globl	_Z16test_fnmsub_s_33v
	.type	_Z16test_fnmsub_s_33v, @function
_Z16test_fnmsub_s_33v:
.LFB4801:
	.cfi_startproc
	endbr64
	pushq	%rbp
	.cfi_def_cfa_offset 16
	.cfi_offset 6, -16
	xorl	%edi, %edi
	movq	%rsp, %rbp
	.cfi_def_cfa_register 6
	call	_ZN5riscv10fenv_setrmEi
	movl	$1, %edi
	movl	$1, %eax
	popq	%rbp
	.cfi_def_cfa 7, 8
	movsd	.LC57(%rip), %xmm0
	leaq	.LC13(%rip), %rsi
	jmp	__printf_chk@PLT
	.cfi_endproc
.LFE4801:
	.size	_Z16test_fnmsub_s_33v, .-_Z16test_fnmsub_s_33v
	.p2align 4
	.globl	_Z16test_fnmsub_s_34v
	.type	_Z16test_fnmsub_s_34v, @function
_Z16test_fnmsub_s_34v:
.LFB4803:
	.cfi_startproc
	endbr64
	pushq	%rbp
	.cfi_def_cfa_offset 16
	.cfi_offset 6, -16
	xorl	%edi, %edi
	movq	%rsp, %rbp
	.cfi_def_cfa_register 6
	call	_ZN5riscv10fenv_setrmEi
	movl	$1, %edi
	movl	$1, %eax
	popq	%rbp
	.cfi_def_cfa 7, 8
	movsd	.LC57(%rip), %xmm0
	leaq	.LC13(%rip), %rsi
	jmp	__printf_chk@PLT
	.cfi_endproc
.LFE4803:
	.size	_Z16test_fnmsub_s_34v, .-_Z16test_fnmsub_s_34v
	.p2align 4
	.globl	_Z16test_fnmsub_s_35v
	.type	_Z16test_fnmsub_s_35v, @function
_Z16test_fnmsub_s_35v:
.LFB4805:
	.cfi_startproc
	endbr64
	pushq	%rbp
	.cfi_def_cfa_offset 16
	.cfi_offset 6, -16
	xorl	%edi, %edi
	movq	%rsp, %rbp
	.cfi_def_cfa_register 6
	call	_ZN5riscv10fenv_setrmEi
	movl	$1, %edi
	movl	$1, %eax
	popq	%rbp
	.cfi_def_cfa 7, 8
	movsd	.LC57(%rip), %xmm0
	leaq	.LC13(%rip), %rsi
	jmp	__printf_chk@PLT
	.cfi_endproc
.LFE4805:
	.size	_Z16test_fnmsub_s_35v, .-_Z16test_fnmsub_s_35v
	.p2align 4
	.globl	_Z16test_fnmsub_s_36v
	.type	_Z16test_fnmsub_s_36v, @function
_Z16test_fnmsub_s_36v:
.LFB3761:
	.cfi_startproc
	endbr64
	jmp	_Z14test_fmadd_s_6v
	.cfi_endproc
.LFE3761:
	.size	_Z16test_fnmsub_s_36v, .-_Z16test_fnmsub_s_36v
	.p2align 4
	.globl	_Z16test_fnmsub_s_37v
	.type	_Z16test_fnmsub_s_37v, @function
_Z16test_fnmsub_s_37v:
.LFB3059:
	.cfi_startproc
	endbr64
	pushq	%rbp
	.cfi_def_cfa_offset 16
	.cfi_offset 6, -16
	xorl	%edi, %edi
	movq	%rsp, %rbp
	.cfi_def_cfa_register 6
	call	_ZN5riscv10fenv_setrmEi
	movl	$1, %edi
	movl	$1, %eax
	popq	%rbp
	.cfi_def_cfa 7, 8
	movsd	.LC12(%rip), %xmm0
	leaq	.LC13(%rip), %rsi
	jmp	__printf_chk@PLT
	.cfi_endproc
.LFE3059:
	.size	_Z16test_fnmsub_s_37v, .-_Z16test_fnmsub_s_37v
	.p2align 4
	.globl	_Z16test_fnmsub_s_38v
	.type	_Z16test_fnmsub_s_38v, @function
_Z16test_fnmsub_s_38v:
.LFB3081:
	.cfi_startproc
	endbr64
	pushq	%rbp
	.cfi_def_cfa_offset 16
	.cfi_offset 6, -16
	xorl	%edi, %edi
	movq	%rsp, %rbp
	.cfi_def_cfa_register 6
	call	_ZN5riscv10fenv_setrmEi
	movl	$1, %edi
	movl	$1, %eax
	popq	%rbp
	.cfi_def_cfa 7, 8
	movsd	.LC14(%rip), %xmm0
	leaq	.LC13(%rip), %rsi
	jmp	__printf_chk@PLT
	.cfi_endproc
.LFE3081:
	.size	_Z16test_fnmsub_s_38v, .-_Z16test_fnmsub_s_38v
	.p2align 4
	.globl	_Z16test_fnmsub_s_39v
	.type	_Z16test_fnmsub_s_39v, @function
_Z16test_fnmsub_s_39v:
.LFB3091:
	.cfi_startproc
	endbr64
	pushq	%rbp
	.cfi_def_cfa_offset 16
	.cfi_offset 6, -16
	xorl	%edi, %edi
	movq	%rsp, %rbp
	.cfi_def_cfa_register 6
	call	_ZN5riscv10fenv_setrmEi
	movl	$1, %edi
	movl	$1, %eax
	popq	%rbp
	.cfi_def_cfa 7, 8
	movsd	.LC15(%rip), %xmm0
	leaq	.LC13(%rip), %rsi
	jmp	__printf_chk@PLT
	.cfi_endproc
.LFE3091:
	.size	_Z16test_fnmsub_s_39v, .-_Z16test_fnmsub_s_39v
	.p2align 4
	.globl	_Z16test_fnmsub_s_40v
	.type	_Z16test_fnmsub_s_40v, @function
_Z16test_fnmsub_s_40v:
.LFB3097:
	.cfi_startproc
	endbr64
	pushq	%rbp
	.cfi_def_cfa_offset 16
	.cfi_offset 6, -16
	xorl	%edi, %edi
	movq	%rsp, %rbp
	.cfi_def_cfa_register 6
	call	_ZN5riscv10fenv_setrmEi
	movl	$1, %edi
	movl	$1, %eax
	popq	%rbp
	.cfi_def_cfa 7, 8
	movsd	.LC16(%rip), %xmm0
	leaq	.LC13(%rip), %rsi
	jmp	__printf_chk@PLT
	.cfi_endproc
.LFE3097:
	.size	_Z16test_fnmsub_s_40v, .-_Z16test_fnmsub_s_40v
	.p2align 4
	.globl	_Z16test_fnmsub_s_41v
	.type	_Z16test_fnmsub_s_41v, @function
_Z16test_fnmsub_s_41v:
.LFB3273:
	.cfi_startproc
	endbr64
	jmp	_Z14test_fmadd_s_5v
	.cfi_endproc
.LFE3273:
	.size	_Z16test_fnmsub_s_41v, .-_Z16test_fnmsub_s_41v
	.p2align 4
	.globl	_Z16test_fnmsub_s_42v
	.type	_Z16test_fnmsub_s_42v, @function
_Z16test_fnmsub_s_42v:
.LFB3763:
	.cfi_startproc
	endbr64
	jmp	_Z14test_fmadd_s_6v
	.cfi_endproc
.LFE3763:
	.size	_Z16test_fnmsub_s_42v, .-_Z16test_fnmsub_s_42v
	.p2align 4
	.globl	_Z16test_fnmsub_s_43v
	.type	_Z16test_fnmsub_s_43v, @function
_Z16test_fnmsub_s_43v:
.LFB4125:
	.cfi_startproc
	endbr64
	pushq	%rbp
	.cfi_def_cfa_offset 16
	.cfi_offset 6, -16
	xorl	%edi, %edi
	movq	%rsp, %rbp
	.cfi_def_cfa_register 6
	call	_ZN5riscv10fenv_setrmEi
	movl	$1, %edi
	movl	$1, %eax
	popq	%rbp
	.cfi_def_cfa 7, 8
	movsd	.LC19(%rip), %xmm0
	leaq	.LC13(%rip), %rsi
	jmp	__printf_chk@PLT
	.cfi_endproc
.LFE4125:
	.size	_Z16test_fnmsub_s_43v, .-_Z16test_fnmsub_s_43v
	.p2align 4
	.globl	_Z16test_fnmsub_s_44v
	.type	_Z16test_fnmsub_s_44v, @function
_Z16test_fnmsub_s_44v:
.LFB4139:
	.cfi_startproc
	endbr64
	pushq	%rbp
	.cfi_def_cfa_offset 16
	.cfi_offset 6, -16
	xorl	%edi, %edi
	movq	%rsp, %rbp
	.cfi_def_cfa_register 6
	call	_ZN5riscv10fenv_setrmEi
	movl	$1, %edi
	movl	$1, %eax
	popq	%rbp
	.cfi_def_cfa 7, 8
	movsd	.LC20(%rip), %xmm0
	leaq	.LC13(%rip), %rsi
	jmp	__printf_chk@PLT
	.cfi_endproc
.LFE4139:
	.size	_Z16test_fnmsub_s_44v, .-_Z16test_fnmsub_s_44v
	.p2align 4
	.globl	_Z16test_fnmsub_s_45v
	.type	_Z16test_fnmsub_s_45v, @function
_Z16test_fnmsub_s_45v:
.LFB4153:
	.cfi_startproc
	endbr64
	pushq	%rbp
	.cfi_def_cfa_offset 16
	.cfi_offset 6, -16
	xorl	%edi, %edi
	movq	%rsp, %rbp
	.cfi_def_cfa_register 6
	call	_ZN5riscv10fenv_setrmEi
	movl	$1, %edi
	movl	$1, %eax
	popq	%rbp
	.cfi_def_cfa 7, 8
	movsd	.LC21(%rip), %xmm0
	leaq	.LC13(%rip), %rsi
	jmp	__printf_chk@PLT
	.cfi_endproc
.LFE4153:
	.size	_Z16test_fnmsub_s_45v, .-_Z16test_fnmsub_s_45v
	.p2align 4
	.globl	_Z16test_fnmsub_s_46v
	.type	_Z16test_fnmsub_s_46v, @function
_Z16test_fnmsub_s_46v:
.LFB4159:
	.cfi_startproc
	endbr64
	pushq	%rbp
	.cfi_def_cfa_offset 16
	.cfi_offset 6, -16
	xorl	%edi, %edi
	movq	%rsp, %rbp
	.cfi_def_cfa_register 6
	call	_ZN5riscv10fenv_setrmEi
	movl	$1, %edi
	movl	$1, %eax
	popq	%rbp
	.cfi_def_cfa 7, 8
	movsd	.LC22(%rip), %xmm0
	leaq	.LC13(%rip), %rsi
	jmp	__printf_chk@PLT
	.cfi_endproc
.LFE4159:
	.size	_Z16test_fnmsub_s_46v, .-_Z16test_fnmsub_s_46v
	.p2align 4
	.globl	_Z16test_fnmsub_s_47v
	.type	_Z16test_fnmsub_s_47v, @function
_Z16test_fnmsub_s_47v:
.LFB3275:
	.cfi_startproc
	endbr64
	jmp	_Z14test_fmadd_s_5v
	.cfi_endproc
.LFE3275:
	.size	_Z16test_fnmsub_s_47v, .-_Z16test_fnmsub_s_47v
	.p2align 4
	.globl	_Z16test_fnmsub_s_48v
	.type	_Z16test_fnmsub_s_48v, @function
_Z16test_fnmsub_s_48v:
.LFB3765:
	.cfi_startproc
	endbr64
	jmp	_Z14test_fmadd_s_6v
	.cfi_endproc
.LFE3765:
	.size	_Z16test_fnmsub_s_48v, .-_Z16test_fnmsub_s_48v
	.p2align 4
	.globl	_Z16test_fnmsub_s_49v
	.type	_Z16test_fnmsub_s_49v, @function
_Z16test_fnmsub_s_49v:
.LFB4167:
	.cfi_startproc
	endbr64
	pushq	%rbp
	.cfi_def_cfa_offset 16
	.cfi_offset 6, -16
	xorl	%edi, %edi
	movq	%rsp, %rbp
	.cfi_def_cfa_register 6
	call	_ZN5riscv10fenv_setrmEi
	movl	$1, %edi
	movl	$1, %eax
	popq	%rbp
	.cfi_def_cfa 7, 8
	movsd	.LC23(%rip), %xmm0
	leaq	.LC13(%rip), %rsi
	jmp	__printf_chk@PLT
	.cfi_endproc
.LFE4167:
	.size	_Z16test_fnmsub_s_49v, .-_Z16test_fnmsub_s_49v
	.p2align 4
	.globl	_Z16test_fnmsub_s_50v
	.type	_Z16test_fnmsub_s_50v, @function
_Z16test_fnmsub_s_50v:
.LFB4189:
	.cfi_startproc
	endbr64
	pushq	%rbp
	.cfi_def_cfa_offset 16
	.cfi_offset 6, -16
	xorl	%edi, %edi
	movq	%rsp, %rbp
	.cfi_def_cfa_register 6
	call	_ZN5riscv10fenv_setrmEi
	movl	$1, %edi
	movl	$1, %eax
	popq	%rbp
	.cfi_def_cfa 7, 8
