
_testcfs3:     file format elf32-i386


Disassembly of section .text:

00000000 <main>:
      wait();
   }
}

int main(int argc, char **argv)
{
   0:	f3 0f 1e fb          	endbr32 
   4:	8d 4c 24 04          	lea    0x4(%esp),%ecx
   8:	83 e4 f0             	and    $0xfffffff0,%esp
   b:	ff 71 fc             	pushl  -0x4(%ecx)
   e:	55                   	push   %ebp
   f:	89 e5                	mov    %esp,%ebp
  11:	51                   	push   %ecx
  12:	83 ec 0c             	sub    $0xc,%esp
      printf(1, "=== TEST START ===\n");
  15:	68 35 08 00 00       	push   $0x835
  1a:	6a 01                	push   $0x1
  1c:	e8 9f 04 00 00       	call   4c0 <printf>
      test_p1_2();
  21:	e8 1a 00 00 00       	call   40 <test_p1_2>
      printf(1, "=== TEST   END ===\n");
  26:	58                   	pop    %eax
  27:	5a                   	pop    %edx
  28:	68 49 08 00 00       	push   $0x849
  2d:	6a 01                	push   $0x1
  2f:	e8 8c 04 00 00       	call   4c0 <printf>

      exit();
  34:	e8 fa 02 00 00       	call   333 <exit>
  39:	66 90                	xchg   %ax,%ax
  3b:	66 90                	xchg   %ax,%ax
  3d:	66 90                	xchg   %ax,%ax
  3f:	90                   	nop

00000040 <test_p1_2>:
{
  40:	f3 0f 1e fb          	endbr32 
  44:	55                   	push   %ebp
  45:	89 e5                	mov    %esp,%ebp
  47:	53                   	push   %ebx
  48:	bb 05 00 00 00       	mov    $0x5,%ebx
  4d:	83 ec 04             	sub    $0x4,%esp
   int pid = getpid();
  50:	e8 5e 03 00 00       	call   3b3 <getpid>
   printf(1, "1st pid: %d\n", pid);   
  55:	83 ec 04             	sub    $0x4,%esp
  58:	50                   	push   %eax
  59:	68 28 08 00 00       	push   $0x828
  5e:	6a 01                	push   $0x1
  60:	e8 5b 04 00 00       	call   4c0 <printf>
   pid = fork();
  65:	e8 c1 02 00 00       	call   32b <fork>
   if(pid == 0){   //child
  6a:	83 c4 10             	add    $0x10,%esp
  6d:	85 c0                	test   %eax,%eax
  6f:	74 32                	je     a3 <test_p1_2+0x63>
         for ( z = 0; z < 3000000.0; z += 0.1 )
  71:	d9 ee                	fldz   
  73:	dd 05 60 08 00 00    	fldl   0x860
  79:	8d b4 26 00 00 00 00 	lea    0x0(%esi,%eiz,1),%esi
  80:	dc c1                	fadd   %st,%st(1)
  82:	d9 05 68 08 00 00    	flds   0x868
  88:	df f2                	fcomip %st(2),%st
  8a:	77 f4                	ja     80 <test_p1_2+0x40>
  8c:	dd d8                	fstp   %st(0)
  8e:	dd d8                	fstp   %st(0)
         ps();
  90:	e8 66 03 00 00       	call   3fb <ps>
      for(j = 0; j < 5; j++){
  95:	83 eb 01             	sub    $0x1,%ebx
  98:	75 d7                	jne    71 <test_p1_2+0x31>
}
  9a:	8b 5d fc             	mov    -0x4(%ebp),%ebx
  9d:	c9                   	leave  
      wait();
  9e:	e9 98 02 00 00       	jmp    33b <wait>
         for ( z = 0; z < 3000000.0; z += 0.1 )
  a3:	d9 ee                	fldz   
  a5:	dc 05 60 08 00 00    	faddl  0x860
  ab:	d9 05 68 08 00 00    	flds   0x868
  b1:	df f1                	fcomip %st(1),%st
  b3:	77 f0                	ja     a5 <test_p1_2+0x65>
  b5:	dd d8                	fstp   %st(0)
         ps();
  b7:	e8 3f 03 00 00       	call   3fb <ps>
      for(i = 0; i < 5; i++){
  bc:	83 eb 01             	sub    $0x1,%ebx
  bf:	75 e2                	jne    a3 <test_p1_2+0x63>
      exit();
  c1:	e8 6d 02 00 00       	call   333 <exit>
  c6:	66 90                	xchg   %ax,%ax
  c8:	66 90                	xchg   %ax,%ax
  ca:	66 90                	xchg   %ax,%ax
  cc:	66 90                	xchg   %ax,%ax
  ce:	66 90                	xchg   %ax,%ax

000000d0 <strcpy>:
  d0:	f3 0f 1e fb          	endbr32 
  d4:	55                   	push   %ebp
  d5:	31 c0                	xor    %eax,%eax
  d7:	89 e5                	mov    %esp,%ebp
  d9:	53                   	push   %ebx
  da:	8b 4d 08             	mov    0x8(%ebp),%ecx
  dd:	8b 5d 0c             	mov    0xc(%ebp),%ebx
  e0:	0f b6 14 03          	movzbl (%ebx,%eax,1),%edx
  e4:	88 14 01             	mov    %dl,(%ecx,%eax,1)
  e7:	83 c0 01             	add    $0x1,%eax
  ea:	84 d2                	test   %dl,%dl
  ec:	75 f2                	jne    e0 <strcpy+0x10>
  ee:	89 c8                	mov    %ecx,%eax
  f0:	5b                   	pop    %ebx
  f1:	5d                   	pop    %ebp
  f2:	c3                   	ret    
  f3:	8d b4 26 00 00 00 00 	lea    0x0(%esi,%eiz,1),%esi
  fa:	8d b6 00 00 00 00    	lea    0x0(%esi),%esi

00000100 <strcmp>:
 100:	f3 0f 1e fb          	endbr32 
 104:	55                   	push   %ebp
 105:	89 e5                	mov    %esp,%ebp
 107:	53                   	push   %ebx
 108:	8b 4d 08             	mov    0x8(%ebp),%ecx
 10b:	8b 55 0c             	mov    0xc(%ebp),%edx
 10e:	0f b6 01             	movzbl (%ecx),%eax
 111:	0f b6 1a             	movzbl (%edx),%ebx
 114:	84 c0                	test   %al,%al
 116:	75 19                	jne    131 <strcmp+0x31>
 118:	eb 26                	jmp    140 <strcmp+0x40>
 11a:	8d b6 00 00 00 00    	lea    0x0(%esi),%esi
 120:	0f b6 41 01          	movzbl 0x1(%ecx),%eax
 124:	83 c1 01             	add    $0x1,%ecx
 127:	83 c2 01             	add    $0x1,%edx
 12a:	0f b6 1a             	movzbl (%edx),%ebx
 12d:	84 c0                	test   %al,%al
 12f:	74 0f                	je     140 <strcmp+0x40>
 131:	38 d8                	cmp    %bl,%al
 133:	74 eb                	je     120 <strcmp+0x20>
 135:	29 d8                	sub    %ebx,%eax
 137:	5b                   	pop    %ebx
 138:	5d                   	pop    %ebp
 139:	c3                   	ret    
 13a:	8d b6 00 00 00 00    	lea    0x0(%esi),%esi
 140:	31 c0                	xor    %eax,%eax
 142:	29 d8                	sub    %ebx,%eax
 144:	5b                   	pop    %ebx
 145:	5d                   	pop    %ebp
 146:	c3                   	ret    
 147:	8d b4 26 00 00 00 00 	lea    0x0(%esi,%eiz,1),%esi
 14e:	66 90                	xchg   %ax,%ax

00000150 <strlen>:
 150:	f3 0f 1e fb          	endbr32 
 154:	55                   	push   %ebp
 155:	89 e5                	mov    %esp,%ebp
 157:	8b 55 08             	mov    0x8(%ebp),%edx
 15a:	80 3a 00             	cmpb   $0x0,(%edx)
 15d:	74 21                	je     180 <strlen+0x30>
 15f:	31 c0                	xor    %eax,%eax
 161:	8d b4 26 00 00 00 00 	lea    0x0(%esi,%eiz,1),%esi
 168:	83 c0 01             	add    $0x1,%eax
 16b:	80 3c 02 00          	cmpb   $0x0,(%edx,%eax,1)
 16f:	89 c1                	mov    %eax,%ecx
 171:	75 f5                	jne    168 <strlen+0x18>
 173:	89 c8                	mov    %ecx,%eax
 175:	5d                   	pop    %ebp
 176:	c3                   	ret    
 177:	8d b4 26 00 00 00 00 	lea    0x0(%esi,%eiz,1),%esi
 17e:	66 90                	xchg   %ax,%ax
 180:	31 c9                	xor    %ecx,%ecx
 182:	5d                   	pop    %ebp
 183:	89 c8                	mov    %ecx,%eax
 185:	c3                   	ret    
 186:	8d b4 26 00 00 00 00 	lea    0x0(%esi,%eiz,1),%esi
 18d:	8d 76 00             	lea    0x0(%esi),%esi

00000190 <memset>:
 190:	f3 0f 1e fb          	endbr32 
 194:	55                   	push   %ebp
 195:	89 e5                	mov    %esp,%ebp
 197:	57                   	push   %edi
 198:	8b 55 08             	mov    0x8(%ebp),%edx
 19b:	8b 4d 10             	mov    0x10(%ebp),%ecx
 19e:	8b 45 0c             	mov    0xc(%ebp),%eax
 1a1:	89 d7                	mov    %edx,%edi
 1a3:	fc                   	cld    
 1a4:	f3 aa                	rep stos %al,%es:(%edi)
 1a6:	89 d0                	mov    %edx,%eax
 1a8:	5f                   	pop    %edi
 1a9:	5d                   	pop    %ebp
 1aa:	c3                   	ret    
 1ab:	8d 74 26 00          	lea    0x0(%esi,%eiz,1),%esi
 1af:	90                   	nop

000001b0 <strchr>:
 1b0:	f3 0f 1e fb          	endbr32 
 1b4:	55                   	push   %ebp
 1b5:	89 e5                	mov    %esp,%ebp
 1b7:	8b 45 08             	mov    0x8(%ebp),%eax
 1ba:	0f b6 4d 0c          	movzbl 0xc(%ebp),%ecx
 1be:	0f b6 10             	movzbl (%eax),%edx
 1c1:	84 d2                	test   %dl,%dl
 1c3:	75 16                	jne    1db <strchr+0x2b>
 1c5:	eb 21                	jmp    1e8 <strchr+0x38>
 1c7:	8d b4 26 00 00 00 00 	lea    0x0(%esi,%eiz,1),%esi
 1ce:	66 90                	xchg   %ax,%ax
 1d0:	0f b6 50 01          	movzbl 0x1(%eax),%edx
 1d4:	83 c0 01             	add    $0x1,%eax
 1d7:	84 d2                	test   %dl,%dl
 1d9:	74 0d                	je     1e8 <strchr+0x38>
 1db:	38 d1                	cmp    %dl,%cl
 1dd:	75 f1                	jne    1d0 <strchr+0x20>
 1df:	5d                   	pop    %ebp
 1e0:	c3                   	ret    
 1e1:	8d b4 26 00 00 00 00 	lea    0x0(%esi,%eiz,1),%esi
 1e8:	31 c0                	xor    %eax,%eax
 1ea:	5d                   	pop    %ebp
 1eb:	c3                   	ret    
 1ec:	8d 74 26 00          	lea    0x0(%esi,%eiz,1),%esi

000001f0 <gets>:
 1f0:	f3 0f 1e fb          	endbr32 
 1f4:	55                   	push   %ebp
 1f5:	89 e5                	mov    %esp,%ebp
 1f7:	57                   	push   %edi
 1f8:	56                   	push   %esi
 1f9:	31 f6                	xor    %esi,%esi
 1fb:	53                   	push   %ebx
 1fc:	89 f3                	mov    %esi,%ebx
 1fe:	83 ec 1c             	sub    $0x1c,%esp
 201:	8b 7d 08             	mov    0x8(%ebp),%edi
 204:	eb 33                	jmp    239 <gets+0x49>
 206:	8d b4 26 00 00 00 00 	lea    0x0(%esi,%eiz,1),%esi
 20d:	8d 76 00             	lea    0x0(%esi),%esi
 210:	83 ec 04             	sub    $0x4,%esp
 213:	8d 45 e7             	lea    -0x19(%ebp),%eax
 216:	6a 01                	push   $0x1
 218:	50                   	push   %eax
 219:	6a 00                	push   $0x0
 21b:	e8 2b 01 00 00       	call   34b <read>
 220:	83 c4 10             	add    $0x10,%esp
 223:	85 c0                	test   %eax,%eax
 225:	7e 1c                	jle    243 <gets+0x53>
 227:	0f b6 45 e7          	movzbl -0x19(%ebp),%eax
 22b:	83 c7 01             	add    $0x1,%edi
 22e:	88 47 ff             	mov    %al,-0x1(%edi)
 231:	3c 0a                	cmp    $0xa,%al
 233:	74 23                	je     258 <gets+0x68>
 235:	3c 0d                	cmp    $0xd,%al
 237:	74 1f                	je     258 <gets+0x68>
 239:	83 c3 01             	add    $0x1,%ebx
 23c:	89 fe                	mov    %edi,%esi
 23e:	3b 5d 0c             	cmp    0xc(%ebp),%ebx
 241:	7c cd                	jl     210 <gets+0x20>
 243:	89 f3                	mov    %esi,%ebx
 245:	8b 45 08             	mov    0x8(%ebp),%eax
 248:	c6 03 00             	movb   $0x0,(%ebx)
 24b:	8d 65 f4             	lea    -0xc(%ebp),%esp
 24e:	5b                   	pop    %ebx
 24f:	5e                   	pop    %esi
 250:	5f                   	pop    %edi
 251:	5d                   	pop    %ebp
 252:	c3                   	ret    
 253:	8d 74 26 00          	lea    0x0(%esi,%eiz,1),%esi
 257:	90                   	nop
 258:	8b 75 08             	mov    0x8(%ebp),%esi
 25b:	8b 45 08             	mov    0x8(%ebp),%eax
 25e:	01 de                	add    %ebx,%esi
 260:	89 f3                	mov    %esi,%ebx
 262:	c6 03 00             	movb   $0x0,(%ebx)
 265:	8d 65 f4             	lea    -0xc(%ebp),%esp
 268:	5b                   	pop    %ebx
 269:	5e                   	pop    %esi
 26a:	5f                   	pop    %edi
 26b:	5d                   	pop    %ebp
 26c:	c3                   	ret    
 26d:	8d 76 00             	lea    0x0(%esi),%esi

00000270 <stat>:
 270:	f3 0f 1e fb          	endbr32 
 274:	55                   	push   %ebp
 275:	89 e5                	mov    %esp,%ebp
 277:	56                   	push   %esi
 278:	53                   	push   %ebx
 279:	83 ec 08             	sub    $0x8,%esp
 27c:	6a 00                	push   $0x0
 27e:	ff 75 08             	pushl  0x8(%ebp)
 281:	e8 ed 00 00 00       	call   373 <open>
 286:	83 c4 10             	add    $0x10,%esp
 289:	85 c0                	test   %eax,%eax
 28b:	78 2b                	js     2b8 <stat+0x48>
 28d:	83 ec 08             	sub    $0x8,%esp
 290:	ff 75 0c             	pushl  0xc(%ebp)
 293:	89 c3                	mov    %eax,%ebx
 295:	50                   	push   %eax
 296:	e8 f0 00 00 00       	call   38b <fstat>
 29b:	89 1c 24             	mov    %ebx,(%esp)
 29e:	89 c6                	mov    %eax,%esi
 2a0:	e8 b6 00 00 00       	call   35b <close>
 2a5:	83 c4 10             	add    $0x10,%esp
 2a8:	8d 65 f8             	lea    -0x8(%ebp),%esp
 2ab:	89 f0                	mov    %esi,%eax
 2ad:	5b                   	pop    %ebx
 2ae:	5e                   	pop    %esi
 2af:	5d                   	pop    %ebp
 2b0:	c3                   	ret    
 2b1:	8d b4 26 00 00 00 00 	lea    0x0(%esi,%eiz,1),%esi
 2b8:	be ff ff ff ff       	mov    $0xffffffff,%esi
 2bd:	eb e9                	jmp    2a8 <stat+0x38>
 2bf:	90                   	nop

000002c0 <atoi>:
 2c0:	f3 0f 1e fb          	endbr32 
 2c4:	55                   	push   %ebp
 2c5:	89 e5                	mov    %esp,%ebp
 2c7:	53                   	push   %ebx
 2c8:	8b 55 08             	mov    0x8(%ebp),%edx
 2cb:	0f be 02             	movsbl (%edx),%eax
 2ce:	8d 48 d0             	lea    -0x30(%eax),%ecx
 2d1:	80 f9 09             	cmp    $0x9,%cl
 2d4:	b9 00 00 00 00       	mov    $0x0,%ecx
 2d9:	77 1a                	ja     2f5 <atoi+0x35>
 2db:	8d 74 26 00          	lea    0x0(%esi,%eiz,1),%esi
 2df:	90                   	nop
 2e0:	83 c2 01             	add    $0x1,%edx
 2e3:	8d 0c 89             	lea    (%ecx,%ecx,4),%ecx
 2e6:	8d 4c 48 d0          	lea    -0x30(%eax,%ecx,2),%ecx
 2ea:	0f be 02             	movsbl (%edx),%eax
 2ed:	8d 58 d0             	lea    -0x30(%eax),%ebx
 2f0:	80 fb 09             	cmp    $0x9,%bl
 2f3:	76 eb                	jbe    2e0 <atoi+0x20>
 2f5:	89 c8                	mov    %ecx,%eax
 2f7:	5b                   	pop    %ebx
 2f8:	5d                   	pop    %ebp
 2f9:	c3                   	ret    
 2fa:	8d b6 00 00 00 00    	lea    0x0(%esi),%esi

00000300 <memmove>:
 300:	f3 0f 1e fb          	endbr32 
 304:	55                   	push   %ebp
 305:	89 e5                	mov    %esp,%ebp
 307:	57                   	push   %edi
 308:	8b 45 10             	mov    0x10(%ebp),%eax
 30b:	8b 55 08             	mov    0x8(%ebp),%edx
 30e:	56                   	push   %esi
 30f:	8b 75 0c             	mov    0xc(%ebp),%esi
 312:	85 c0                	test   %eax,%eax
 314:	7e 0f                	jle    325 <memmove+0x25>
 316:	01 d0                	add    %edx,%eax
 318:	89 d7                	mov    %edx,%edi
 31a:	8d b6 00 00 00 00    	lea    0x0(%esi),%esi
 320:	a4                   	movsb  %ds:(%esi),%es:(%edi)
 321:	39 f8                	cmp    %edi,%eax
 323:	75 fb                	jne    320 <memmove+0x20>
 325:	5e                   	pop    %esi
 326:	89 d0                	mov    %edx,%eax
 328:	5f                   	pop    %edi
 329:	5d                   	pop    %ebp
 32a:	c3                   	ret    

0000032b <fork>:
 32b:	b8 01 00 00 00       	mov    $0x1,%eax
 330:	cd 40                	int    $0x40
 332:	c3                   	ret    

00000333 <exit>:
 333:	b8 02 00 00 00       	mov    $0x2,%eax
 338:	cd 40                	int    $0x40
 33a:	c3                   	ret    

0000033b <wait>:
 33b:	b8 03 00 00 00       	mov    $0x3,%eax
 340:	cd 40                	int    $0x40
 342:	c3                   	ret    

00000343 <pipe>:
 343:	b8 04 00 00 00       	mov    $0x4,%eax
 348:	cd 40                	int    $0x40
 34a:	c3                   	ret    

0000034b <read>:
 34b:	b8 05 00 00 00       	mov    $0x5,%eax
 350:	cd 40                	int    $0x40
 352:	c3                   	ret    

00000353 <write>:
 353:	b8 10 00 00 00       	mov    $0x10,%eax
 358:	cd 40                	int    $0x40
 35a:	c3                   	ret    

0000035b <close>:
 35b:	b8 15 00 00 00       	mov    $0x15,%eax
 360:	cd 40                	int    $0x40
 362:	c3                   	ret    

00000363 <kill>:
 363:	b8 06 00 00 00       	mov    $0x6,%eax
 368:	cd 40                	int    $0x40
 36a:	c3                   	ret    

0000036b <exec>:
 36b:	b8 07 00 00 00       	mov    $0x7,%eax
 370:	cd 40                	int    $0x40
 372:	c3                   	ret    

00000373 <open>:
 373:	b8 0f 00 00 00       	mov    $0xf,%eax
 378:	cd 40                	int    $0x40
 37a:	c3                   	ret    

0000037b <mknod>:
 37b:	b8 11 00 00 00       	mov    $0x11,%eax
 380:	cd 40                	int    $0x40
 382:	c3                   	ret    

00000383 <unlink>:
 383:	b8 12 00 00 00       	mov    $0x12,%eax
 388:	cd 40                	int    $0x40
 38a:	c3                   	ret    

0000038b <fstat>:
 38b:	b8 08 00 00 00       	mov    $0x8,%eax
 390:	cd 40                	int    $0x40
 392:	c3                   	ret    

00000393 <link>:
 393:	b8 13 00 00 00       	mov    $0x13,%eax
 398:	cd 40                	int    $0x40
 39a:	c3                   	ret    

0000039b <mkdir>:
 39b:	b8 14 00 00 00       	mov    $0x14,%eax
 3a0:	cd 40                	int    $0x40
 3a2:	c3                   	ret    

000003a3 <chdir>:
 3a3:	b8 09 00 00 00       	mov    $0x9,%eax
 3a8:	cd 40                	int    $0x40
 3aa:	c3                   	ret    

000003ab <dup>:
 3ab:	b8 0a 00 00 00       	mov    $0xa,%eax
 3b0:	cd 40                	int    $0x40
 3b2:	c3                   	ret    

000003b3 <getpid>:
 3b3:	b8 0b 00 00 00       	mov    $0xb,%eax
 3b8:	cd 40                	int    $0x40
 3ba:	c3                   	ret    

000003bb <sbrk>:
 3bb:	b8 0c 00 00 00       	mov    $0xc,%eax
 3c0:	cd 40                	int    $0x40
 3c2:	c3                   	ret    

000003c3 <sleep>:
 3c3:	b8 0d 00 00 00       	mov    $0xd,%eax
 3c8:	cd 40                	int    $0x40
 3ca:	c3                   	ret    

000003cb <uptime>:
 3cb:	b8 0e 00 00 00       	mov    $0xe,%eax
 3d0:	cd 40                	int    $0x40
 3d2:	c3                   	ret    

000003d3 <swapread>:
 3d3:	b8 16 00 00 00       	mov    $0x16,%eax
 3d8:	cd 40                	int    $0x40
 3da:	c3                   	ret    

000003db <swapwrite>:
 3db:	b8 17 00 00 00       	mov    $0x17,%eax
 3e0:	cd 40                	int    $0x40
 3e2:	c3                   	ret    

000003e3 <setnice>:
 3e3:	b8 18 00 00 00       	mov    $0x18,%eax
 3e8:	cd 40                	int    $0x40
 3ea:	c3                   	ret    

000003eb <getnice>:
 3eb:	b8 19 00 00 00       	mov    $0x19,%eax
 3f0:	cd 40                	int    $0x40
 3f2:	c3                   	ret    

000003f3 <yield>:
 3f3:	b8 1a 00 00 00       	mov    $0x1a,%eax
 3f8:	cd 40                	int    $0x40
 3fa:	c3                   	ret    

000003fb <ps>:
 3fb:	b8 1b 00 00 00       	mov    $0x1b,%eax
 400:	cd 40                	int    $0x40
 402:	c3                   	ret    
 403:	66 90                	xchg   %ax,%ax
 405:	66 90                	xchg   %ax,%ax
 407:	66 90                	xchg   %ax,%ax
 409:	66 90                	xchg   %ax,%ax
 40b:	66 90                	xchg   %ax,%ax
 40d:	66 90                	xchg   %ax,%ax
 40f:	90                   	nop

00000410 <printint>:
 410:	55                   	push   %ebp
 411:	89 e5                	mov    %esp,%ebp
 413:	57                   	push   %edi
 414:	56                   	push   %esi
 415:	53                   	push   %ebx
 416:	83 ec 3c             	sub    $0x3c,%esp
 419:	89 4d c4             	mov    %ecx,-0x3c(%ebp)
 41c:	89 d1                	mov    %edx,%ecx
 41e:	89 45 b8             	mov    %eax,-0x48(%ebp)
 421:	85 d2                	test   %edx,%edx
 423:	0f 89 7f 00 00 00    	jns    4a8 <printint+0x98>
 429:	f6 45 08 01          	testb  $0x1,0x8(%ebp)
 42d:	74 79                	je     4a8 <printint+0x98>
 42f:	c7 45 bc 01 00 00 00 	movl   $0x1,-0x44(%ebp)
 436:	f7 d9                	neg    %ecx
 438:	31 db                	xor    %ebx,%ebx
 43a:	8d 75 d7             	lea    -0x29(%ebp),%esi
 43d:	8d 76 00             	lea    0x0(%esi),%esi
 440:	89 c8                	mov    %ecx,%eax
 442:	31 d2                	xor    %edx,%edx
 444:	89 cf                	mov    %ecx,%edi
 446:	f7 75 c4             	divl   -0x3c(%ebp)
 449:	0f b6 92 74 08 00 00 	movzbl 0x874(%edx),%edx
 450:	89 45 c0             	mov    %eax,-0x40(%ebp)
 453:	89 d8                	mov    %ebx,%eax
 455:	8d 5b 01             	lea    0x1(%ebx),%ebx
 458:	8b 4d c0             	mov    -0x40(%ebp),%ecx
 45b:	88 14 1e             	mov    %dl,(%esi,%ebx,1)
 45e:	39 7d c4             	cmp    %edi,-0x3c(%ebp)
 461:	76 dd                	jbe    440 <printint+0x30>
 463:	8b 4d bc             	mov    -0x44(%ebp),%ecx
 466:	85 c9                	test   %ecx,%ecx
 468:	74 0c                	je     476 <printint+0x66>
 46a:	c6 44 1d d8 2d       	movb   $0x2d,-0x28(%ebp,%ebx,1)
 46f:	89 d8                	mov    %ebx,%eax
 471:	ba 2d 00 00 00       	mov    $0x2d,%edx
 476:	8b 7d b8             	mov    -0x48(%ebp),%edi
 479:	8d 5c 05 d7          	lea    -0x29(%ebp,%eax,1),%ebx
 47d:	eb 07                	jmp    486 <printint+0x76>
 47f:	90                   	nop
 480:	0f b6 13             	movzbl (%ebx),%edx
 483:	83 eb 01             	sub    $0x1,%ebx
 486:	83 ec 04             	sub    $0x4,%esp
 489:	88 55 d7             	mov    %dl,-0x29(%ebp)
 48c:	6a 01                	push   $0x1
 48e:	56                   	push   %esi
 48f:	57                   	push   %edi
 490:	e8 be fe ff ff       	call   353 <write>
 495:	83 c4 10             	add    $0x10,%esp
 498:	39 de                	cmp    %ebx,%esi
 49a:	75 e4                	jne    480 <printint+0x70>
 49c:	8d 65 f4             	lea    -0xc(%ebp),%esp
 49f:	5b                   	pop    %ebx
 4a0:	5e                   	pop    %esi
 4a1:	5f                   	pop    %edi
 4a2:	5d                   	pop    %ebp
 4a3:	c3                   	ret    
 4a4:	8d 74 26 00          	lea    0x0(%esi,%eiz,1),%esi
 4a8:	c7 45 bc 00 00 00 00 	movl   $0x0,-0x44(%ebp)
 4af:	eb 87                	jmp    438 <printint+0x28>
 4b1:	8d b4 26 00 00 00 00 	lea    0x0(%esi,%eiz,1),%esi
 4b8:	8d b4 26 00 00 00 00 	lea    0x0(%esi,%eiz,1),%esi
 4bf:	90                   	nop

000004c0 <printf>:
 4c0:	f3 0f 1e fb          	endbr32 
 4c4:	55                   	push   %ebp
 4c5:	89 e5                	mov    %esp,%ebp
 4c7:	57                   	push   %edi
 4c8:	56                   	push   %esi
 4c9:	53                   	push   %ebx
 4ca:	83 ec 2c             	sub    $0x2c,%esp
 4cd:	8b 75 0c             	mov    0xc(%ebp),%esi
 4d0:	0f b6 1e             	movzbl (%esi),%ebx
 4d3:	84 db                	test   %bl,%bl
 4d5:	0f 84 b4 00 00 00    	je     58f <printf+0xcf>
 4db:	8d 45 10             	lea    0x10(%ebp),%eax
 4de:	83 c6 01             	add    $0x1,%esi
 4e1:	8d 7d e7             	lea    -0x19(%ebp),%edi
 4e4:	31 d2                	xor    %edx,%edx
 4e6:	89 45 d0             	mov    %eax,-0x30(%ebp)
 4e9:	eb 33                	jmp    51e <printf+0x5e>
 4eb:	8d 74 26 00          	lea    0x0(%esi,%eiz,1),%esi
 4ef:	90                   	nop
 4f0:	89 55 d4             	mov    %edx,-0x2c(%ebp)
 4f3:	ba 25 00 00 00       	mov    $0x25,%edx
 4f8:	83 f8 25             	cmp    $0x25,%eax
 4fb:	74 17                	je     514 <printf+0x54>
 4fd:	83 ec 04             	sub    $0x4,%esp
 500:	88 5d e7             	mov    %bl,-0x19(%ebp)
 503:	6a 01                	push   $0x1
 505:	57                   	push   %edi
 506:	ff 75 08             	pushl  0x8(%ebp)
 509:	e8 45 fe ff ff       	call   353 <write>
 50e:	8b 55 d4             	mov    -0x2c(%ebp),%edx
 511:	83 c4 10             	add    $0x10,%esp
 514:	0f b6 1e             	movzbl (%esi),%ebx
 517:	83 c6 01             	add    $0x1,%esi
 51a:	84 db                	test   %bl,%bl
 51c:	74 71                	je     58f <printf+0xcf>
 51e:	0f be cb             	movsbl %bl,%ecx
 521:	0f b6 c3             	movzbl %bl,%eax
 524:	85 d2                	test   %edx,%edx
 526:	74 c8                	je     4f0 <printf+0x30>
 528:	83 fa 25             	cmp    $0x25,%edx
 52b:	75 e7                	jne    514 <printf+0x54>
 52d:	83 f8 64             	cmp    $0x64,%eax
 530:	0f 84 9a 00 00 00    	je     5d0 <printf+0x110>
 536:	81 e1 f7 00 00 00    	and    $0xf7,%ecx
 53c:	83 f9 70             	cmp    $0x70,%ecx
 53f:	74 5f                	je     5a0 <printf+0xe0>
 541:	83 f8 73             	cmp    $0x73,%eax
 544:	0f 84 d6 00 00 00    	je     620 <printf+0x160>
 54a:	83 f8 63             	cmp    $0x63,%eax
 54d:	0f 84 8d 00 00 00    	je     5e0 <printf+0x120>
 553:	83 f8 25             	cmp    $0x25,%eax
 556:	0f 84 b4 00 00 00    	je     610 <printf+0x150>
 55c:	83 ec 04             	sub    $0x4,%esp
 55f:	c6 45 e7 25          	movb   $0x25,-0x19(%ebp)
 563:	6a 01                	push   $0x1
 565:	57                   	push   %edi
 566:	ff 75 08             	pushl  0x8(%ebp)
 569:	e8 e5 fd ff ff       	call   353 <write>
 56e:	88 5d e7             	mov    %bl,-0x19(%ebp)
 571:	83 c4 0c             	add    $0xc,%esp
 574:	6a 01                	push   $0x1
 576:	83 c6 01             	add    $0x1,%esi
 579:	57                   	push   %edi
 57a:	ff 75 08             	pushl  0x8(%ebp)
 57d:	e8 d1 fd ff ff       	call   353 <write>
 582:	0f b6 5e ff          	movzbl -0x1(%esi),%ebx
 586:	83 c4 10             	add    $0x10,%esp
 589:	31 d2                	xor    %edx,%edx
 58b:	84 db                	test   %bl,%bl
 58d:	75 8f                	jne    51e <printf+0x5e>
 58f:	8d 65 f4             	lea    -0xc(%ebp),%esp
 592:	5b                   	pop    %ebx
 593:	5e                   	pop    %esi
 594:	5f                   	pop    %edi
 595:	5d                   	pop    %ebp
 596:	c3                   	ret    
 597:	8d b4 26 00 00 00 00 	lea    0x0(%esi,%eiz,1),%esi
 59e:	66 90                	xchg   %ax,%ax
 5a0:	83 ec 0c             	sub    $0xc,%esp
 5a3:	b9 10 00 00 00       	mov    $0x10,%ecx
 5a8:	6a 00                	push   $0x0
 5aa:	8b 5d d0             	mov    -0x30(%ebp),%ebx
 5ad:	8b 45 08             	mov    0x8(%ebp),%eax
 5b0:	8b 13                	mov    (%ebx),%edx
 5b2:	e8 59 fe ff ff       	call   410 <printint>
 5b7:	89 d8                	mov    %ebx,%eax
 5b9:	83 c4 10             	add    $0x10,%esp
 5bc:	31 d2                	xor    %edx,%edx
 5be:	83 c0 04             	add    $0x4,%eax
 5c1:	89 45 d0             	mov    %eax,-0x30(%ebp)
 5c4:	e9 4b ff ff ff       	jmp    514 <printf+0x54>
 5c9:	8d b4 26 00 00 00 00 	lea    0x0(%esi,%eiz,1),%esi
 5d0:	83 ec 0c             	sub    $0xc,%esp
 5d3:	b9 0a 00 00 00       	mov    $0xa,%ecx
 5d8:	6a 01                	push   $0x1
 5da:	eb ce                	jmp    5aa <printf+0xea>
 5dc:	8d 74 26 00          	lea    0x0(%esi,%eiz,1),%esi
 5e0:	8b 5d d0             	mov    -0x30(%ebp),%ebx
 5e3:	83 ec 04             	sub    $0x4,%esp
 5e6:	8b 03                	mov    (%ebx),%eax
 5e8:	6a 01                	push   $0x1
 5ea:	83 c3 04             	add    $0x4,%ebx
 5ed:	57                   	push   %edi
 5ee:	ff 75 08             	pushl  0x8(%ebp)
 5f1:	88 45 e7             	mov    %al,-0x19(%ebp)
 5f4:	e8 5a fd ff ff       	call   353 <write>
 5f9:	89 5d d0             	mov    %ebx,-0x30(%ebp)
 5fc:	83 c4 10             	add    $0x10,%esp
 5ff:	31 d2                	xor    %edx,%edx
 601:	e9 0e ff ff ff       	jmp    514 <printf+0x54>
 606:	8d b4 26 00 00 00 00 	lea    0x0(%esi,%eiz,1),%esi
 60d:	8d 76 00             	lea    0x0(%esi),%esi
 610:	88 5d e7             	mov    %bl,-0x19(%ebp)
 613:	83 ec 04             	sub    $0x4,%esp
 616:	e9 59 ff ff ff       	jmp    574 <printf+0xb4>
 61b:	8d 74 26 00          	lea    0x0(%esi,%eiz,1),%esi
 61f:	90                   	nop
 620:	8b 45 d0             	mov    -0x30(%ebp),%eax
 623:	8b 18                	mov    (%eax),%ebx
 625:	83 c0 04             	add    $0x4,%eax
 628:	89 45 d0             	mov    %eax,-0x30(%ebp)
 62b:	85 db                	test   %ebx,%ebx
 62d:	74 17                	je     646 <printf+0x186>
 62f:	0f b6 03             	movzbl (%ebx),%eax
 632:	31 d2                	xor    %edx,%edx
 634:	84 c0                	test   %al,%al
 636:	0f 84 d8 fe ff ff    	je     514 <printf+0x54>
 63c:	89 75 d4             	mov    %esi,-0x2c(%ebp)
 63f:	89 de                	mov    %ebx,%esi
 641:	8b 5d 08             	mov    0x8(%ebp),%ebx
 644:	eb 1a                	jmp    660 <printf+0x1a0>
 646:	bb 6c 08 00 00       	mov    $0x86c,%ebx
 64b:	89 75 d4             	mov    %esi,-0x2c(%ebp)
 64e:	b8 28 00 00 00       	mov    $0x28,%eax
 653:	89 de                	mov    %ebx,%esi
 655:	8b 5d 08             	mov    0x8(%ebp),%ebx
 658:	8d b4 26 00 00 00 00 	lea    0x0(%esi,%eiz,1),%esi
 65f:	90                   	nop
 660:	83 ec 04             	sub    $0x4,%esp
 663:	83 c6 01             	add    $0x1,%esi
 666:	88 45 e7             	mov    %al,-0x19(%ebp)
 669:	6a 01                	push   $0x1
 66b:	57                   	push   %edi
 66c:	53                   	push   %ebx
 66d:	e8 e1 fc ff ff       	call   353 <write>
 672:	0f b6 06             	movzbl (%esi),%eax
 675:	83 c4 10             	add    $0x10,%esp
 678:	84 c0                	test   %al,%al
 67a:	75 e4                	jne    660 <printf+0x1a0>
 67c:	8b 75 d4             	mov    -0x2c(%ebp),%esi
 67f:	31 d2                	xor    %edx,%edx
 681:	e9 8e fe ff ff       	jmp    514 <printf+0x54>
 686:	66 90                	xchg   %ax,%ax
 688:	66 90                	xchg   %ax,%ax
 68a:	66 90                	xchg   %ax,%ax
 68c:	66 90                	xchg   %ax,%ax
 68e:	66 90                	xchg   %ax,%ax

00000690 <free>:
 690:	f3 0f 1e fb          	endbr32 
 694:	55                   	push   %ebp
 695:	a1 44 0b 00 00       	mov    0xb44,%eax
 69a:	89 e5                	mov    %esp,%ebp
 69c:	57                   	push   %edi
 69d:	56                   	push   %esi
 69e:	53                   	push   %ebx
 69f:	8b 5d 08             	mov    0x8(%ebp),%ebx
 6a2:	8b 10                	mov    (%eax),%edx
 6a4:	8d 4b f8             	lea    -0x8(%ebx),%ecx
 6a7:	39 c8                	cmp    %ecx,%eax
 6a9:	73 15                	jae    6c0 <free+0x30>
 6ab:	8d 74 26 00          	lea    0x0(%esi,%eiz,1),%esi
 6af:	90                   	nop
 6b0:	39 d1                	cmp    %edx,%ecx
 6b2:	72 14                	jb     6c8 <free+0x38>
 6b4:	39 d0                	cmp    %edx,%eax
 6b6:	73 10                	jae    6c8 <free+0x38>
 6b8:	89 d0                	mov    %edx,%eax
 6ba:	8b 10                	mov    (%eax),%edx
 6bc:	39 c8                	cmp    %ecx,%eax
 6be:	72 f0                	jb     6b0 <free+0x20>
 6c0:	39 d0                	cmp    %edx,%eax
 6c2:	72 f4                	jb     6b8 <free+0x28>
 6c4:	39 d1                	cmp    %edx,%ecx
 6c6:	73 f0                	jae    6b8 <free+0x28>
 6c8:	8b 73 fc             	mov    -0x4(%ebx),%esi
 6cb:	8d 3c f1             	lea    (%ecx,%esi,8),%edi
 6ce:	39 fa                	cmp    %edi,%edx
 6d0:	74 1e                	je     6f0 <free+0x60>
 6d2:	89 53 f8             	mov    %edx,-0x8(%ebx)
 6d5:	8b 50 04             	mov    0x4(%eax),%edx
 6d8:	8d 34 d0             	lea    (%eax,%edx,8),%esi
 6db:	39 f1                	cmp    %esi,%ecx
 6dd:	74 28                	je     707 <free+0x77>
 6df:	89 08                	mov    %ecx,(%eax)
 6e1:	5b                   	pop    %ebx
 6e2:	a3 44 0b 00 00       	mov    %eax,0xb44
 6e7:	5e                   	pop    %esi
 6e8:	5f                   	pop    %edi
 6e9:	5d                   	pop    %ebp
 6ea:	c3                   	ret    
 6eb:	8d 74 26 00          	lea    0x0(%esi,%eiz,1),%esi
 6ef:	90                   	nop
 6f0:	03 72 04             	add    0x4(%edx),%esi
 6f3:	89 73 fc             	mov    %esi,-0x4(%ebx)
 6f6:	8b 10                	mov    (%eax),%edx
 6f8:	8b 12                	mov    (%edx),%edx
 6fa:	89 53 f8             	mov    %edx,-0x8(%ebx)
 6fd:	8b 50 04             	mov    0x4(%eax),%edx
 700:	8d 34 d0             	lea    (%eax,%edx,8),%esi
 703:	39 f1                	cmp    %esi,%ecx
 705:	75 d8                	jne    6df <free+0x4f>
 707:	03 53 fc             	add    -0x4(%ebx),%edx
 70a:	a3 44 0b 00 00       	mov    %eax,0xb44
 70f:	89 50 04             	mov    %edx,0x4(%eax)
 712:	8b 53 f8             	mov    -0x8(%ebx),%edx
 715:	89 10                	mov    %edx,(%eax)
 717:	5b                   	pop    %ebx
 718:	5e                   	pop    %esi
 719:	5f                   	pop    %edi
 71a:	5d                   	pop    %ebp
 71b:	c3                   	ret    
 71c:	8d 74 26 00          	lea    0x0(%esi,%eiz,1),%esi

00000720 <malloc>:
 720:	f3 0f 1e fb          	endbr32 
 724:	55                   	push   %ebp
 725:	89 e5                	mov    %esp,%ebp
 727:	57                   	push   %edi
 728:	56                   	push   %esi
 729:	53                   	push   %ebx
 72a:	83 ec 1c             	sub    $0x1c,%esp
 72d:	8b 45 08             	mov    0x8(%ebp),%eax
 730:	8b 3d 44 0b 00 00    	mov    0xb44,%edi
 736:	8d 70 07             	lea    0x7(%eax),%esi
 739:	c1 ee 03             	shr    $0x3,%esi
 73c:	83 c6 01             	add    $0x1,%esi
 73f:	85 ff                	test   %edi,%edi
 741:	0f 84 a9 00 00 00    	je     7f0 <malloc+0xd0>
 747:	8b 07                	mov    (%edi),%eax
 749:	8b 48 04             	mov    0x4(%eax),%ecx
 74c:	39 f1                	cmp    %esi,%ecx
 74e:	73 6d                	jae    7bd <malloc+0x9d>
 750:	81 fe 00 10 00 00    	cmp    $0x1000,%esi
 756:	bb 00 10 00 00       	mov    $0x1000,%ebx
 75b:	0f 43 de             	cmovae %esi,%ebx
 75e:	8d 0c dd 00 00 00 00 	lea    0x0(,%ebx,8),%ecx
 765:	89 4d e4             	mov    %ecx,-0x1c(%ebp)
 768:	eb 17                	jmp    781 <malloc+0x61>
 76a:	8d b6 00 00 00 00    	lea    0x0(%esi),%esi
 770:	8b 10                	mov    (%eax),%edx
 772:	8b 4a 04             	mov    0x4(%edx),%ecx
 775:	39 f1                	cmp    %esi,%ecx
 777:	73 4f                	jae    7c8 <malloc+0xa8>
 779:	8b 3d 44 0b 00 00    	mov    0xb44,%edi
 77f:	89 d0                	mov    %edx,%eax
 781:	39 c7                	cmp    %eax,%edi
 783:	75 eb                	jne    770 <malloc+0x50>
 785:	83 ec 0c             	sub    $0xc,%esp
 788:	ff 75 e4             	pushl  -0x1c(%ebp)
 78b:	e8 2b fc ff ff       	call   3bb <sbrk>
 790:	83 c4 10             	add    $0x10,%esp
 793:	83 f8 ff             	cmp    $0xffffffff,%eax
 796:	74 1b                	je     7b3 <malloc+0x93>
 798:	89 58 04             	mov    %ebx,0x4(%eax)
 79b:	83 ec 0c             	sub    $0xc,%esp
 79e:	83 c0 08             	add    $0x8,%eax
 7a1:	50                   	push   %eax
 7a2:	e8 e9 fe ff ff       	call   690 <free>
 7a7:	a1 44 0b 00 00       	mov    0xb44,%eax
 7ac:	83 c4 10             	add    $0x10,%esp
 7af:	85 c0                	test   %eax,%eax
 7b1:	75 bd                	jne    770 <malloc+0x50>
 7b3:	8d 65 f4             	lea    -0xc(%ebp),%esp
 7b6:	31 c0                	xor    %eax,%eax
 7b8:	5b                   	pop    %ebx
 7b9:	5e                   	pop    %esi
 7ba:	5f                   	pop    %edi
 7bb:	5d                   	pop    %ebp
 7bc:	c3                   	ret    
 7bd:	89 c2                	mov    %eax,%edx
 7bf:	89 f8                	mov    %edi,%eax
 7c1:	8d b4 26 00 00 00 00 	lea    0x0(%esi,%eiz,1),%esi
 7c8:	39 ce                	cmp    %ecx,%esi
 7ca:	74 54                	je     820 <malloc+0x100>
 7cc:	29 f1                	sub    %esi,%ecx
 7ce:	89 4a 04             	mov    %ecx,0x4(%edx)
 7d1:	8d 14 ca             	lea    (%edx,%ecx,8),%edx
 7d4:	89 72 04             	mov    %esi,0x4(%edx)
 7d7:	a3 44 0b 00 00       	mov    %eax,0xb44
 7dc:	8d 65 f4             	lea    -0xc(%ebp),%esp
 7df:	8d 42 08             	lea    0x8(%edx),%eax
 7e2:	5b                   	pop    %ebx
 7e3:	5e                   	pop    %esi
 7e4:	5f                   	pop    %edi
 7e5:	5d                   	pop    %ebp
 7e6:	c3                   	ret    
 7e7:	8d b4 26 00 00 00 00 	lea    0x0(%esi,%eiz,1),%esi
 7ee:	66 90                	xchg   %ax,%ax
 7f0:	c7 05 44 0b 00 00 48 	movl   $0xb48,0xb44
 7f7:	0b 00 00 
 7fa:	bf 48 0b 00 00       	mov    $0xb48,%edi
 7ff:	c7 05 48 0b 00 00 48 	movl   $0xb48,0xb48
 806:	0b 00 00 
 809:	89 f8                	mov    %edi,%eax
 80b:	c7 05 4c 0b 00 00 00 	movl   $0x0,0xb4c
 812:	00 00 00 
 815:	e9 36 ff ff ff       	jmp    750 <malloc+0x30>
 81a:	8d b6 00 00 00 00    	lea    0x0(%esi),%esi
 820:	8b 0a                	mov    (%edx),%ecx
 822:	89 08                	mov    %ecx,(%eax)
 824:	eb b1                	jmp    7d7 <malloc+0xb7>
